   1               		.file	"rgblight.c"
   2               	__SP_H__ = 0x3e
   3               	__SP_L__ = 0x3d
   4               	__SREG__ = 0x3f
   5               	__tmp_reg__ = 0
   6               	__zero_reg__ = 1
   7               		.text
   8               	.Ltext0:
   9               		.cfi_sections	.debug_frame
  10               		.section	.text.sethsv,"ax",@progbits
  11               	.global	sethsv
  13               	sethsv:
  14               	.LVL0:
  15               	.LFB7:
  16               		.file 1 "quantum/rgblight.c"
   1:quantum/rgblight.c **** #include <avr/eeprom.h>
   2:quantum/rgblight.c **** #include <avr/interrupt.h>
   3:quantum/rgblight.c **** #include <util/delay.h>
   4:quantum/rgblight.c **** #include "progmem.h"
   5:quantum/rgblight.c **** #include "timer.h"
   6:quantum/rgblight.c **** #include "rgblight.h"
   7:quantum/rgblight.c **** #include "debug.h"
   8:quantum/rgblight.c **** 
   9:quantum/rgblight.c **** // Lightness curve using the CIE 1931 lightness formula
  10:quantum/rgblight.c **** //Generated by the python script provided in http://jared.geek.nz/2013/feb/linear-led-pwm
  11:quantum/rgblight.c **** const uint8_t DIM_CURVE[] PROGMEM = {
  12:quantum/rgblight.c ****     0, 0, 0, 0, 0, 1, 1, 1, 1, 1,
  13:quantum/rgblight.c ****     1, 1, 1, 1, 2, 2, 2, 2, 2, 2,
  14:quantum/rgblight.c ****     2, 2, 2, 3, 3, 3, 3, 3, 3, 3,
  15:quantum/rgblight.c ****     3, 4, 4, 4, 4, 4, 4, 5, 5, 5,
  16:quantum/rgblight.c ****     5, 5, 6, 6, 6, 6, 6, 7, 7, 7,
  17:quantum/rgblight.c ****     7, 8, 8, 8, 8, 9, 9, 9, 10, 10,
  18:quantum/rgblight.c ****     10, 10, 11, 11, 11, 12, 12, 12, 13, 13,
  19:quantum/rgblight.c ****     13, 14, 14, 15, 15, 15, 16, 16, 17, 17,
  20:quantum/rgblight.c ****     17, 18, 18, 19, 19, 20, 20, 21, 21, 22,
  21:quantum/rgblight.c ****     22, 23, 23, 24, 24, 25, 25, 26, 26, 27,
  22:quantum/rgblight.c ****     28, 28, 29, 29, 30, 31, 31, 32, 32, 33,
  23:quantum/rgblight.c ****     34, 34, 35, 36, 37, 37, 38, 39, 39, 40,
  24:quantum/rgblight.c ****     41, 42, 43, 43, 44, 45, 46, 47, 47, 48,
  25:quantum/rgblight.c ****     49, 50, 51, 52, 53, 54, 54, 55, 56, 57,
  26:quantum/rgblight.c ****     58, 59, 60, 61, 62, 63, 64, 65, 66, 67,
  27:quantum/rgblight.c ****     68, 70, 71, 72, 73, 74, 75, 76, 77, 79,
  28:quantum/rgblight.c ****     80, 81, 82, 83, 85, 86, 87, 88, 90, 91,
  29:quantum/rgblight.c ****     92, 94, 95, 96, 98, 99, 100, 102, 103, 105,
  30:quantum/rgblight.c ****     106, 108, 109, 110, 112, 113, 115, 116, 118, 120,
  31:quantum/rgblight.c ****     121, 123, 124, 126, 128, 129, 131, 132, 134, 136,
  32:quantum/rgblight.c ****     138, 139, 141, 143, 145, 146, 148, 150, 152, 154,
  33:quantum/rgblight.c ****     155, 157, 159, 161, 163, 165, 167, 169, 171, 173,
  34:quantum/rgblight.c ****     175, 177, 179, 181, 183, 185, 187, 189, 191, 193,
  35:quantum/rgblight.c ****     196, 198, 200, 202, 204, 207, 209, 211, 214, 216,
  36:quantum/rgblight.c ****     218, 220, 223, 225, 228, 230, 232, 235, 237, 240,
  37:quantum/rgblight.c ****     242, 245, 247, 250, 252, 255,
  38:quantum/rgblight.c ****     };
  39:quantum/rgblight.c **** 
  40:quantum/rgblight.c **** const uint8_t RGBLED_BREATHING_TABLE[] PROGMEM = {
  41:quantum/rgblight.c ****   0, 0, 0, 0, 1, 1, 1, 2, 2, 3, 4, 5, 5, 6, 7, 9,
  42:quantum/rgblight.c ****   10, 11, 12, 14, 15, 17, 18, 20, 21, 23, 25, 27, 29, 31, 33, 35,
  43:quantum/rgblight.c ****   37, 40, 42, 44, 47, 49, 52, 54, 57, 59, 62, 65, 67, 70, 73, 76,
  44:quantum/rgblight.c ****   79, 82, 85, 88, 90, 93, 97, 100, 103, 106, 109, 112, 115, 118, 121, 124,
  45:quantum/rgblight.c ****   127, 131, 134, 137, 140, 143, 146, 149, 152, 155, 158, 162, 165, 167, 170, 173,
  46:quantum/rgblight.c ****   176, 179, 182, 185, 188, 190, 193, 196, 198, 201, 203, 206, 208, 211, 213, 215,
  47:quantum/rgblight.c ****   218, 220, 222, 224, 226, 228, 230, 232, 234, 235, 237, 238, 240, 241, 243, 244,
  48:quantum/rgblight.c ****   245, 246, 248, 249, 250, 250, 251, 252, 253, 253, 254, 254, 254, 255, 255, 255,
  49:quantum/rgblight.c ****   255, 255, 255, 255, 254, 254, 254, 253, 253, 252, 251, 250, 250, 249, 248, 246,
  50:quantum/rgblight.c ****   245, 244, 243, 241, 240, 238, 237, 235, 234, 232, 230, 228, 226, 224, 222, 220,
  51:quantum/rgblight.c ****   218, 215, 213, 211, 208, 206, 203, 201, 198, 196, 193, 190, 188, 185, 182, 179,
  52:quantum/rgblight.c ****   176, 173, 170, 167, 165, 162, 158, 155, 152, 149, 146, 143, 140, 137, 134, 131,
  53:quantum/rgblight.c ****   128, 124, 121, 118, 115, 112, 109, 106, 103, 100, 97, 93, 90, 88, 85, 82,
  54:quantum/rgblight.c ****   79, 76, 73, 70, 67, 65, 62, 59, 57, 54, 52, 49, 47, 44, 42, 40,
  55:quantum/rgblight.c ****   37, 35, 33, 31, 29, 27, 25, 23, 21, 20, 18, 17, 15, 14, 12, 11,
  56:quantum/rgblight.c ****   10, 9, 7, 6, 5, 5, 4, 3, 2, 2, 1, 1, 1, 0, 0, 0
  57:quantum/rgblight.c **** };
  58:quantum/rgblight.c **** 
  59:quantum/rgblight.c **** __attribute__ ((weak))
  60:quantum/rgblight.c **** const uint8_t RGBLED_BREATHING_INTERVALS[] PROGMEM = {30, 20, 10, 5};
  61:quantum/rgblight.c **** __attribute__ ((weak))
  62:quantum/rgblight.c **** const uint8_t RGBLED_RAINBOW_MOOD_INTERVALS[] PROGMEM = {120, 60, 30};
  63:quantum/rgblight.c **** __attribute__ ((weak))
  64:quantum/rgblight.c **** const uint8_t RGBLED_RAINBOW_SWIRL_INTERVALS[] PROGMEM = {100, 50, 20};
  65:quantum/rgblight.c **** __attribute__ ((weak))
  66:quantum/rgblight.c **** const uint8_t RGBLED_SNAKE_INTERVALS[] PROGMEM = {100, 50, 20};
  67:quantum/rgblight.c **** __attribute__ ((weak))
  68:quantum/rgblight.c **** const uint8_t RGBLED_KNIGHT_INTERVALS[] PROGMEM = {100, 50, 20};
  69:quantum/rgblight.c **** 
  70:quantum/rgblight.c **** rgblight_config_t rgblight_config;
  71:quantum/rgblight.c **** rgblight_config_t inmem_config;
  72:quantum/rgblight.c **** 
  73:quantum/rgblight.c **** LED_TYPE led[RGBLED_NUM];
  74:quantum/rgblight.c **** uint8_t rgblight_inited = 0;
  75:quantum/rgblight.c **** bool rgblight_timer_enabled = false;
  76:quantum/rgblight.c **** 
  77:quantum/rgblight.c **** void sethsv(uint16_t hue, uint8_t sat, uint8_t val, LED_TYPE *led1) {
  17               		.loc 1 77 69 view -0
  18               		.cfi_startproc
  19               		.loc 1 77 69 is_stmt 0 view .LVU1
  20 0000 AF92      		push r10
  21               	.LCFI0:
  22               		.cfi_def_cfa_offset 3
  23               		.cfi_offset 10, -2
  24 0002 BF92      		push r11
  25               	.LCFI1:
  26               		.cfi_def_cfa_offset 4
  27               		.cfi_offset 11, -3
  28 0004 CF92      		push r12
  29               	.LCFI2:
  30               		.cfi_def_cfa_offset 5
  31               		.cfi_offset 12, -4
  32 0006 DF92      		push r13
  33               	.LCFI3:
  34               		.cfi_def_cfa_offset 6
  35               		.cfi_offset 13, -5
  36 0008 EF92      		push r14
  37               	.LCFI4:
  38               		.cfi_def_cfa_offset 7
  39               		.cfi_offset 14, -6
  40 000a FF92      		push r15
  41               	.LCFI5:
  42               		.cfi_def_cfa_offset 8
  43               		.cfi_offset 15, -7
  44 000c 0F93      		push r16
  45               	.LCFI6:
  46               		.cfi_def_cfa_offset 9
  47               		.cfi_offset 16, -8
  48 000e 1F93      		push r17
  49               	.LCFI7:
  50               		.cfi_def_cfa_offset 10
  51               		.cfi_offset 17, -9
  52 0010 CF93      		push r28
  53               	.LCFI8:
  54               		.cfi_def_cfa_offset 11
  55               		.cfi_offset 28, -10
  56 0012 DF93      		push r29
  57               	.LCFI9:
  58               		.cfi_def_cfa_offset 12
  59               		.cfi_offset 29, -11
  60               	/* prologue: function */
  61               	/* frame size = 0 */
  62               	/* stack size = 10 */
  63               	.L__stack_usage = 10
  64 0014 7C01      		movw r14,r24
  65 0016 E901      		movw r28,r18
  78:quantum/rgblight.c ****   uint8_t r = 0, g = 0, b = 0, base, color;
  66               		.loc 1 78 3 is_stmt 1 view .LVU2
  67               	.LVL1:
  79:quantum/rgblight.c **** 
  80:quantum/rgblight.c ****   if (sat == 0) { // Acromatic color (gray). Hue doesn't mind.
  68               		.loc 1 80 3 view .LVU3
  81:quantum/rgblight.c ****     r = val;
  82:quantum/rgblight.c ****     g = val;
  83:quantum/rgblight.c ****     b = val;
  69               		.loc 1 83 7 is_stmt 0 view .LVU4
  70 0018 842F      		mov r24,r20
  71               	.LVL2:
  82:quantum/rgblight.c ****     b = val;
  72               		.loc 1 82 7 view .LVU5
  73 001a 242F      		mov r18,r20
  74               	.LVL3:
  80:quantum/rgblight.c ****     r = val;
  75               		.loc 1 80 6 view .LVU6
  76 001c 6623      		tst r22
  77 001e 01F4      		brne .+2
  78 0020 00C0      		rjmp .L2
  79 0022 C42E      		mov r12,r20
  80 0024 D12C      		mov r13,__zero_reg__
  84:quantum/rgblight.c ****   } else {
  85:quantum/rgblight.c ****     base = ((255 - sat) * val) >> 8;
  81               		.loc 1 85 5 is_stmt 1 view .LVU7
  82               		.loc 1 85 18 is_stmt 0 view .LVU8
  83 0026 8FEF      		ldi r24,lo8(-1)
  84 0028 90E0      		ldi r25,0
  85 002a 861B      		sub r24,r22
  86 002c 9109      		sbc r25,__zero_reg__
  87               		.loc 1 85 25 view .LVU9
  88 002e 489F      		mul r20,r24
  89 0030 8001      		movw r16,r0
  90 0032 499F      		mul r20,r25
  91 0034 100D      		add r17,r0
  92 0036 1124      		clr __zero_reg__
  93               		.loc 1 85 10 view .LVU10
  94 0038 212F      		mov r18,r17
  95               	.LVL4:
  86:quantum/rgblight.c ****     color = (val - base) * (hue % 60) / 60;
  96               		.loc 1 86 5 is_stmt 1 view .LVU11
  97               		.loc 1 86 18 is_stmt 0 view .LVU12
  98 003a 812F      		mov r24,r17
  99 003c 9927      		clr r25
 100 003e C81A      		sub r12,r24
 101 0040 D90A      		sbc r13,r25
 102               		.loc 1 86 33 view .LVU13
 103 0042 9CE3      		ldi r25,lo8(60)
 104 0044 A92E      		mov r10,r25
 105 0046 B12C      		mov r11,__zero_reg__
 106 0048 C701      		movw r24,r14
 107 004a B501      		movw r22,r10
 108               	.LVL5:
 109               		.loc 1 86 33 view .LVU14
 110 004c 0E94 0000 		call __udivmodhi4
 111 0050 FB01      		movw r30,r22
 112 0052 BC01      		movw r22,r24
 113               		.loc 1 86 26 view .LVU15
 114 0054 C69E      		mul r12,r22
 115 0056 C001      		movw r24,r0
 116 0058 C79E      		mul r12,r23
 117 005a 900D      		add r25,r0
 118 005c D69E      		mul r13,r22
 119 005e 900D      		add r25,r0
 120 0060 1124      		clr r1
 121               		.loc 1 86 39 view .LVU16
 122 0062 B501      		movw r22,r10
 123 0064 0E94 0000 		call __udivmodhi4
 124               	.LVL6:
  87:quantum/rgblight.c **** 
  88:quantum/rgblight.c ****     switch (hue / 60) {
 125               		.loc 1 88 5 is_stmt 1 view .LVU17
 126 0068 E330      		cpi r30,3
 127 006a F105      		cpc r31,__zero_reg__
 128 006c 01F4      		brne .+2
 129 006e 00C0      		rjmp .L3
 130 0070 80EF      		ldi r24,-16
 131 0072 E816      		cp r14,r24
 132 0074 F104      		cpc r15,__zero_reg__
 133 0076 00F4      		brsh .L4
 134 0078 E130      		cpi r30,1
 135 007a F105      		cpc r31,__zero_reg__
 136 007c 01F0      		breq .L5
 137 007e 3297      		sbiw r30,2
 138 0080 01F0      		breq .L6
 139 0082 8CE3      		ldi r24,60
 140 0084 E816      		cp r14,r24
 141 0086 F104      		cpc r15,__zero_reg__
 142 0088 00F0      		brlo .L7
 143               	.L11:
 144 008a 80E0      		ldi r24,0
 145 008c 20E0      		ldi r18,0
 146 008e 40E0      		ldi r20,0
 147               	.LVL7:
 148               		.loc 1 88 5 is_stmt 0 view .LVU18
 149 0090 00C0      		rjmp .L2
 150               	.LVL8:
 151               	.L4:
 152               		.loc 1 88 5 view .LVU19
 153 0092 E430      		cpi r30,4
 154 0094 F105      		cpc r31,__zero_reg__
 155 0096 01F0      		breq .L8
  89:quantum/rgblight.c ****       case 0:
  90:quantum/rgblight.c ****         r = val;
  91:quantum/rgblight.c ****         g = base + color;
  92:quantum/rgblight.c ****         b = base;
  93:quantum/rgblight.c ****         break;
  94:quantum/rgblight.c ****       case 1:
  95:quantum/rgblight.c ****         r = val - color;
  96:quantum/rgblight.c ****         g = val;
  97:quantum/rgblight.c ****         b = base;
  98:quantum/rgblight.c ****         break;
  99:quantum/rgblight.c ****       case 2:
 100:quantum/rgblight.c ****         r = base;
 101:quantum/rgblight.c ****         g = val;
 102:quantum/rgblight.c ****         b = base + color;
 103:quantum/rgblight.c ****         break;
 104:quantum/rgblight.c ****       case 3:
 105:quantum/rgblight.c ****         r = base;
 106:quantum/rgblight.c ****         g = val - color;
 107:quantum/rgblight.c ****         b = val;
 108:quantum/rgblight.c ****         break;
 109:quantum/rgblight.c ****       case 4:
 110:quantum/rgblight.c ****         r = base + color;
 111:quantum/rgblight.c ****         g = base;
 112:quantum/rgblight.c ****         b = val;
 113:quantum/rgblight.c ****         break;
 114:quantum/rgblight.c ****       case 5:
 115:quantum/rgblight.c ****         r = val;
 116:quantum/rgblight.c ****         g = base;
 117:quantum/rgblight.c ****         b = val - color;
 156               		.loc 1 117 11 view .LVU20
 157 0098 842F      		mov r24,r20
 158 009a 861B      		sub r24,r22
  88:quantum/rgblight.c ****       case 0:
 159               		.loc 1 88 5 view .LVU21
 160 009c 3597      		sbiw r30,5
 161 009e 01F4      		brne .L11
 162               	.LVL9:
 163               	.L2:
 118:quantum/rgblight.c ****         break;
 119:quantum/rgblight.c ****     }
 120:quantum/rgblight.c ****   }
 121:quantum/rgblight.c ****   r = pgm_read_byte(&DIM_CURVE[r]);
 164               		.loc 1 121 3 is_stmt 1 view .LVU22
 165               	.LBB9:
 166               		.loc 1 121 7 view .LVU23
 167               		.loc 1 121 7 view .LVU24
 168               		.loc 1 121 7 view .LVU25
 169 00a0 E42F      		mov r30,r20
 170 00a2 F0E0      		ldi r31,0
 171 00a4 E050      		subi r30,lo8(-(DIM_CURVE))
 172 00a6 F040      		sbci r31,hi8(-(DIM_CURVE))
 173               	/* #APP */
 174               	 ;  121 "quantum/rgblight.c" 1
 175 00a8 4491      		lpm r20, Z
 176               		
 177               	 ;  0 "" 2
 178               	.LVL10:
 179               		.loc 1 121 7 view .LVU26
 180               		.loc 1 121 7 is_stmt 0 view .LVU27
 181               	/* #NOAPP */
 182               	.LBE9:
 122:quantum/rgblight.c ****   g = pgm_read_byte(&DIM_CURVE[g]);
 183               		.loc 1 122 3 is_stmt 1 view .LVU28
 184               	.LBB10:
 185               		.loc 1 122 7 view .LVU29
 186               		.loc 1 122 7 view .LVU30
 187               		.loc 1 122 7 view .LVU31
 188 00aa E22F      		mov r30,r18
 189 00ac F0E0      		ldi r31,0
 190 00ae E050      		subi r30,lo8(-(DIM_CURVE))
 191 00b0 F040      		sbci r31,hi8(-(DIM_CURVE))
 192               	/* #APP */
 193               	 ;  122 "quantum/rgblight.c" 1
 194 00b2 9491      		lpm r25, Z
 195               		
 196               	 ;  0 "" 2
 197               	.LVL11:
 198               		.loc 1 122 7 view .LVU32
 199               		.loc 1 122 7 is_stmt 0 view .LVU33
 200               	/* #NOAPP */
 201               	.LBE10:
 123:quantum/rgblight.c ****   b = pgm_read_byte(&DIM_CURVE[b]);
 202               		.loc 1 123 3 is_stmt 1 view .LVU34
 203               	.LBB11:
 204               		.loc 1 123 7 view .LVU35
 205               		.loc 1 123 7 view .LVU36
 206               		.loc 1 123 7 view .LVU37
 207 00b4 E82F      		mov r30,r24
 208 00b6 F0E0      		ldi r31,0
 209 00b8 E050      		subi r30,lo8(-(DIM_CURVE))
 210 00ba F040      		sbci r31,hi8(-(DIM_CURVE))
 211               	/* #APP */
 212               	 ;  123 "quantum/rgblight.c" 1
 213 00bc E491      		lpm r30, Z
 214               		
 215               	 ;  0 "" 2
 216               	.LVL12:
 217               		.loc 1 123 7 view .LVU38
 218               		.loc 1 123 7 is_stmt 0 view .LVU39
 219               	/* #NOAPP */
 220               	.LBE11:
 124:quantum/rgblight.c **** 
 125:quantum/rgblight.c ****   setrgb(r, g, b, led1);
 221               		.loc 1 125 3 is_stmt 1 view .LVU40
 222               	.LBB12:
 223               	.LBI12:
 126:quantum/rgblight.c **** }
 127:quantum/rgblight.c **** 
 128:quantum/rgblight.c **** void setrgb(uint8_t r, uint8_t g, uint8_t b, LED_TYPE *led1) {
 224               		.loc 1 128 6 view .LVU41
 225               	.LBB13:
 129:quantum/rgblight.c ****   (*led1).r = r;
 226               		.loc 1 129 3 view .LVU42
 227               		.loc 1 129 13 is_stmt 0 view .LVU43
 228 00be 4983      		std Y+1,r20
 130:quantum/rgblight.c ****   (*led1).g = g;
 229               		.loc 1 130 3 is_stmt 1 view .LVU44
 230               		.loc 1 130 13 is_stmt 0 view .LVU45
 231 00c0 9883      		st Y,r25
 131:quantum/rgblight.c ****   (*led1).b = b;
 232               		.loc 1 131 3 is_stmt 1 view .LVU46
 233               		.loc 1 131 13 is_stmt 0 view .LVU47
 234 00c2 EA83      		std Y+2,r30
 235               	.LVL13:
 236               	/* epilogue start */
 237               		.loc 1 131 13 view .LVU48
 238               	.LBE13:
 239               	.LBE12:
 126:quantum/rgblight.c **** 
 240               		.loc 1 126 1 view .LVU49
 241 00c4 DF91      		pop r29
 242 00c6 CF91      		pop r28
 243               	.LVL14:
 126:quantum/rgblight.c **** 
 244               		.loc 1 126 1 view .LVU50
 245 00c8 1F91      		pop r17
 246 00ca 0F91      		pop r16
 247 00cc FF90      		pop r15
 248 00ce EF90      		pop r14
 249               	.LVL15:
 126:quantum/rgblight.c **** 
 250               		.loc 1 126 1 view .LVU51
 251 00d0 DF90      		pop r13
 252 00d2 CF90      		pop r12
 253 00d4 BF90      		pop r11
 254 00d6 AF90      		pop r10
 255 00d8 0895      		ret
 256               	.LVL16:
 257               	.L7:
  90:quantum/rgblight.c ****         g = base + color;
 258               		.loc 1 90 9 is_stmt 1 view .LVU52
  91:quantum/rgblight.c ****         b = base;
 259               		.loc 1 91 9 view .LVU53
  92:quantum/rgblight.c ****         break;
 260               		.loc 1 92 9 view .LVU54
  93:quantum/rgblight.c ****       case 1:
 261               		.loc 1 93 9 view .LVU55
  92:quantum/rgblight.c ****         break;
 262               		.loc 1 92 11 is_stmt 0 view .LVU56
 263 00da 812F      		mov r24,r17
  91:quantum/rgblight.c ****         b = base;
 264               		.loc 1 91 11 view .LVU57
 265 00dc 262F      		mov r18,r22
 266 00de 210F      		add r18,r17
  93:quantum/rgblight.c ****       case 1:
 267               		.loc 1 93 9 view .LVU58
 268 00e0 00C0      		rjmp .L2
 269               	.LVL17:
 270               	.L5:
  95:quantum/rgblight.c ****         g = val;
 271               		.loc 1 95 9 is_stmt 1 view .LVU59
  96:quantum/rgblight.c ****         b = base;
 272               		.loc 1 96 9 view .LVU60
  97:quantum/rgblight.c ****         break;
 273               		.loc 1 97 9 view .LVU61
  98:quantum/rgblight.c ****       case 2:
 274               		.loc 1 98 9 view .LVU62
  97:quantum/rgblight.c ****         break;
 275               		.loc 1 97 11 is_stmt 0 view .LVU63
 276 00e2 812F      		mov r24,r17
  96:quantum/rgblight.c ****         b = base;
 277               		.loc 1 96 11 view .LVU64
 278 00e4 242F      		mov r18,r20
  95:quantum/rgblight.c ****         g = val;
 279               		.loc 1 95 11 view .LVU65
 280 00e6 461B      		sub r20,r22
 281               	.LVL18:
  98:quantum/rgblight.c ****       case 2:
 282               		.loc 1 98 9 view .LVU66
 283 00e8 00C0      		rjmp .L2
 284               	.LVL19:
 285               	.L6:
 100:quantum/rgblight.c ****         g = val;
 286               		.loc 1 100 9 is_stmt 1 view .LVU67
 101:quantum/rgblight.c ****         b = base + color;
 287               		.loc 1 101 9 view .LVU68
 102:quantum/rgblight.c ****         break;
 288               		.loc 1 102 9 view .LVU69
 102:quantum/rgblight.c ****         break;
 289               		.loc 1 102 11 is_stmt 0 view .LVU70
 290 00ea 862F      		mov r24,r22
 291 00ec 810F      		add r24,r17
 292               	.LVL20:
 103:quantum/rgblight.c ****       case 3:
 293               		.loc 1 103 9 is_stmt 1 view .LVU71
 294 00ee E42F      		mov r30,r20
 295               	.LVL21:
 296               	.L12:
 105:quantum/rgblight.c ****         g = val - color;
 297               		.loc 1 105 11 is_stmt 0 view .LVU72
 298 00f0 412F      		mov r20,r17
 299               	.LVL22:
 106:quantum/rgblight.c ****         b = val;
 300               		.loc 1 106 11 view .LVU73
 301 00f2 2E2F      		mov r18,r30
 108:quantum/rgblight.c ****       case 4:
 302               		.loc 1 108 9 view .LVU74
 303 00f4 00C0      		rjmp .L2
 304               	.LVL23:
 305               	.L3:
 105:quantum/rgblight.c ****         g = val - color;
 306               		.loc 1 105 9 is_stmt 1 view .LVU75
 106:quantum/rgblight.c ****         b = val;
 307               		.loc 1 106 9 view .LVU76
 106:quantum/rgblight.c ****         b = val;
 308               		.loc 1 106 11 is_stmt 0 view .LVU77
 309 00f6 E42F      		mov r30,r20
 310 00f8 E61B      		sub r30,r22
 311               	.LVL24:
 107:quantum/rgblight.c ****         break;
 312               		.loc 1 107 9 is_stmt 1 view .LVU78
 108:quantum/rgblight.c ****       case 4:
 313               		.loc 1 108 9 view .LVU79
 107:quantum/rgblight.c ****         break;
 314               		.loc 1 107 11 is_stmt 0 view .LVU80
 315 00fa 842F      		mov r24,r20
 316 00fc 00C0      		rjmp .L12
 317               	.LVL25:
 318               	.L8:
 110:quantum/rgblight.c ****         g = base;
 319               		.loc 1 110 9 is_stmt 1 view .LVU81
 111:quantum/rgblight.c ****         b = val;
 320               		.loc 1 111 9 view .LVU82
 112:quantum/rgblight.c ****         break;
 321               		.loc 1 112 9 view .LVU83
 113:quantum/rgblight.c ****       case 5:
 322               		.loc 1 113 9 view .LVU84
 112:quantum/rgblight.c ****         break;
 323               		.loc 1 112 11 is_stmt 0 view .LVU85
 324 00fe 842F      		mov r24,r20
 110:quantum/rgblight.c ****         g = base;
 325               		.loc 1 110 11 view .LVU86
 326 0100 462F      		mov r20,r22
 327               	.LVL26:
 110:quantum/rgblight.c ****         g = base;
 328               		.loc 1 110 11 view .LVU87
 329 0102 410F      		add r20,r17
 113:quantum/rgblight.c ****       case 5:
 330               		.loc 1 113 9 view .LVU88
 331 0104 00C0      		rjmp .L2
 332               		.cfi_endproc
 333               	.LFE7:
 335               		.section	.text.setrgb,"ax",@progbits
 336               	.global	setrgb
 338               	setrgb:
 339               	.LVL27:
 340               	.LFB8:
 128:quantum/rgblight.c ****   (*led1).r = r;
 341               		.loc 1 128 62 is_stmt 1 view -0
 342               		.cfi_startproc
 343               	/* prologue: function */
 344               	/* frame size = 0 */
 345               	/* stack size = 0 */
 346               	.L__stack_usage = 0
 128:quantum/rgblight.c ****   (*led1).r = r;
 347               		.loc 1 128 62 is_stmt 0 view .LVU90
 348 0000 F901      		movw r30,r18
 129:quantum/rgblight.c ****   (*led1).g = g;
 349               		.loc 1 129 3 is_stmt 1 view .LVU91
 129:quantum/rgblight.c ****   (*led1).g = g;
 350               		.loc 1 129 13 is_stmt 0 view .LVU92
 351 0002 8183      		std Z+1,r24
 130:quantum/rgblight.c ****   (*led1).b = b;
 352               		.loc 1 130 3 is_stmt 1 view .LVU93
 130:quantum/rgblight.c ****   (*led1).b = b;
 353               		.loc 1 130 13 is_stmt 0 view .LVU94
 354 0004 6083      		st Z,r22
 355               		.loc 1 131 3 is_stmt 1 view .LVU95
 356               		.loc 1 131 13 is_stmt 0 view .LVU96
 357 0006 4283      		std Z+2,r20
 358               	/* epilogue start */
 132:quantum/rgblight.c **** }
 359               		.loc 1 132 1 view .LVU97
 360 0008 0895      		ret
 361               		.cfi_endproc
 362               	.LFE8:
 364               		.section	.text.eeconfig_read_rgblight,"ax",@progbits
 365               	.global	eeconfig_read_rgblight
 367               	eeconfig_read_rgblight:
 368               	.LFB9:
 133:quantum/rgblight.c **** 
 134:quantum/rgblight.c **** 
 135:quantum/rgblight.c **** uint32_t eeconfig_read_rgblight(void) {
 369               		.loc 1 135 39 is_stmt 1 view -0
 370               		.cfi_startproc
 371               	/* prologue: function */
 372               	/* frame size = 0 */
 373               	/* stack size = 0 */
 374               	.L__stack_usage = 0
 136:quantum/rgblight.c ****   return eeprom_read_dword(EECONFIG_RGBLIGHT);
 375               		.loc 1 136 3 view .LVU99
 376               		.loc 1 136 10 is_stmt 0 view .LVU100
 377 0000 88E0      		ldi r24,lo8(8)
 378 0002 90E0      		ldi r25,0
 379 0004 0C94 0000 		jmp eeprom_read_dword
 380               	.LVL28:
 381               		.cfi_endproc
 382               	.LFE9:
 384               		.section	.text.eeconfig_update_rgblight,"ax",@progbits
 385               	.global	eeconfig_update_rgblight
 387               	eeconfig_update_rgblight:
 388               	.LVL29:
 389               	.LFB10:
 137:quantum/rgblight.c **** }
 138:quantum/rgblight.c **** void eeconfig_update_rgblight(uint32_t val) {
 390               		.loc 1 138 45 is_stmt 1 view -0
 391               		.cfi_startproc
 392               	/* prologue: function */
 393               	/* frame size = 0 */
 394               	/* stack size = 0 */
 395               	.L__stack_usage = 0
 396               		.loc 1 138 45 is_stmt 0 view .LVU102
 397 0000 AB01      		movw r20,r22
 398 0002 BC01      		movw r22,r24
 399               	.LVL30:
 139:quantum/rgblight.c ****   eeprom_update_dword(EECONFIG_RGBLIGHT, val);
 400               		.loc 1 139 3 is_stmt 1 view .LVU103
 401 0004 88E0      		ldi r24,lo8(8)
 402 0006 90E0      		ldi r25,0
 403 0008 0C94 0000 		jmp eeprom_update_dword
 404               	.LVL31:
 405               		.cfi_endproc
 406               	.LFE10:
 408               		.section	.text.eeconfig_update_rgblight_default,"ax",@progbits
 409               	.global	eeconfig_update_rgblight_default
 411               	eeconfig_update_rgblight_default:
 412               	.LFB11:
 140:quantum/rgblight.c **** }
 141:quantum/rgblight.c **** void eeconfig_update_rgblight_default(void) {
 413               		.loc 1 141 45 view -0
 414               		.cfi_startproc
 415 0000 CF93      		push r28
 416               	.LCFI10:
 417               		.cfi_def_cfa_offset 3
 418               		.cfi_offset 28, -2
 419 0002 DF93      		push r29
 420               	.LCFI11:
 421               		.cfi_def_cfa_offset 4
 422               		.cfi_offset 29, -3
 423 0004 00D0      		rcall .
 424 0006 00D0      		rcall .
 425               	.LCFI12:
 426               		.cfi_def_cfa_offset 8
 427 0008 CDB7      		in r28,__SP_L__
 428 000a DEB7      		in r29,__SP_H__
 429               	.LCFI13:
 430               		.cfi_def_cfa_register 28
 431               	/* prologue: function */
 432               	/* frame size = 4 */
 433               	/* stack size = 6 */
 434               	.L__stack_usage = 6
 142:quantum/rgblight.c ****   dprintf("eeconfig_update_rgblight_default\n");
 435               		.loc 1 142 48 view .LVU105
 143:quantum/rgblight.c ****   rgblight_config.enable = 1;
 436               		.loc 1 143 3 view .LVU106
 144:quantum/rgblight.c ****   rgblight_config.mode = 1;
 437               		.loc 1 144 3 view .LVU107
 145:quantum/rgblight.c ****   rgblight_config.hue = 0;
 438               		.loc 1 145 3 view .LVU108
 146:quantum/rgblight.c ****   rgblight_config.sat = 255;
 439               		.loc 1 146 3 view .LVU109
 147:quantum/rgblight.c ****   rgblight_config.val = 255;
 440               		.loc 1 147 3 view .LVU110
 143:quantum/rgblight.c ****   rgblight_config.mode = 1;
 441               		.loc 1 143 26 is_stmt 0 view .LVU111
 442 000c E0E0      		ldi r30,lo8(rgblight_config)
 443 000e F0E0      		ldi r31,hi8(rgblight_config)
 444 0010 83E0      		ldi r24,lo8(3)
 445 0012 8083      		st Z,r24
 145:quantum/rgblight.c ****   rgblight_config.sat = 255;
 446               		.loc 1 145 23 view .LVU112
 447 0014 1182      		std Z+1,__zero_reg__
 146:quantum/rgblight.c ****   rgblight_config.val = 255;
 448               		.loc 1 146 23 view .LVU113
 449 0016 8FEF      		ldi r24,lo8(-1)
 450 0018 8283      		std Z+2,r24
 451               		.loc 1 147 23 view .LVU114
 452 001a 8383      		std Z+3,r24
 148:quantum/rgblight.c ****   eeconfig_update_rgblight(rgblight_config.raw);
 453               		.loc 1 148 3 is_stmt 1 view .LVU115
 454 001c 8091 0000 		lds r24,rgblight_config
 455 0020 9091 0000 		lds r25,rgblight_config+1
 456 0024 A091 0000 		lds r26,rgblight_config+2
 457 0028 B091 0000 		lds r27,rgblight_config+3
 458 002c 8983      		std Y+1,r24
 459 002e 9A83      		std Y+2,r25
 460 0030 AB83      		std Y+3,r26
 461 0032 BC83      		std Y+4,r27
 462 0034 BC01      		movw r22,r24
 463 0036 CD01      		movw r24,r26
 464               	/* epilogue start */
 149:quantum/rgblight.c **** }
 465               		.loc 1 149 1 is_stmt 0 view .LVU116
 466 0038 0F90      		pop __tmp_reg__
 467 003a 0F90      		pop __tmp_reg__
 468 003c 0F90      		pop __tmp_reg__
 469 003e 0F90      		pop __tmp_reg__
 470 0040 DF91      		pop r29
 471 0042 CF91      		pop r28
 148:quantum/rgblight.c ****   eeconfig_update_rgblight(rgblight_config.raw);
 472               		.loc 1 148 3 view .LVU117
 473 0044 0C94 0000 		jmp eeconfig_update_rgblight
 474               	.LVL32:
 475               		.cfi_endproc
 476               	.LFE11:
 478               		.section	.text.eeconfig_debug_rgblight,"ax",@progbits
 479               	.global	eeconfig_debug_rgblight
 481               	eeconfig_debug_rgblight:
 482               	.LFB12:
 150:quantum/rgblight.c **** void eeconfig_debug_rgblight(void) {
 483               		.loc 1 150 36 is_stmt 1 view -0
 484               		.cfi_startproc
 485               	/* prologue: function */
 486               	/* frame size = 0 */
 487               	/* stack size = 0 */
 488               	.L__stack_usage = 0
 151:quantum/rgblight.c ****   dprintf("rgblight_config eprom\n");
 489               		.loc 1 151 37 view .LVU119
 152:quantum/rgblight.c ****   dprintf("rgblight_config.enable = %d\n", rgblight_config.enable);
 490               		.loc 1 152 67 view .LVU120
 153:quantum/rgblight.c ****   dprintf("rghlight_config.mode = %d\n", rgblight_config.mode);
 491               		.loc 1 153 63 view .LVU121
 154:quantum/rgblight.c ****   dprintf("rgblight_config.hue = %d\n", rgblight_config.hue);
 492               		.loc 1 154 61 view .LVU122
 155:quantum/rgblight.c ****   dprintf("rgblight_config.sat = %d\n", rgblight_config.sat);
 493               		.loc 1 155 61 view .LVU123
 156:quantum/rgblight.c ****   dprintf("rgblight_config.val = %d\n", rgblight_config.val);
 494               		.loc 1 156 61 view .LVU124
 495               	/* epilogue start */
 157:quantum/rgblight.c **** }
 496               		.loc 1 157 1 is_stmt 0 view .LVU125
 497 0000 0895      		ret
 498               		.cfi_endproc
 499               	.LFE12:
 501               		.section	.text.rgblight_set,"ax",@progbits
 502               		.weak	rgblight_set
 504               	rgblight_set:
 505               	.LFB30:
 158:quantum/rgblight.c **** 
 159:quantum/rgblight.c **** void rgblight_init(void) {
 160:quantum/rgblight.c ****   debug_enable = 1; // Debug ON!
 161:quantum/rgblight.c ****   dprintf("rgblight_init called.\n");
 162:quantum/rgblight.c ****   rgblight_inited = 1;
 163:quantum/rgblight.c ****   dprintf("rgblight_init start!\n");
 164:quantum/rgblight.c ****   if (!eeconfig_is_enabled()) {
 165:quantum/rgblight.c ****     dprintf("rgblight_init eeconfig is not enabled.\n");
 166:quantum/rgblight.c ****     eeconfig_init();
 167:quantum/rgblight.c ****     eeconfig_update_rgblight_default();
 168:quantum/rgblight.c ****   }
 169:quantum/rgblight.c ****   rgblight_config.raw = eeconfig_read_rgblight();
 170:quantum/rgblight.c ****   if (!rgblight_config.mode) {
 171:quantum/rgblight.c ****     dprintf("rgblight_init rgblight_config.mode = 0. Write default values to EEPROM.\n");
 172:quantum/rgblight.c ****     eeconfig_update_rgblight_default();
 173:quantum/rgblight.c ****     rgblight_config.raw = eeconfig_read_rgblight();
 174:quantum/rgblight.c ****   }
 175:quantum/rgblight.c ****   eeconfig_debug_rgblight(); // display current eeprom values
 176:quantum/rgblight.c **** 
 177:quantum/rgblight.c ****   #ifdef RGBLIGHT_ANIMATIONS
 178:quantum/rgblight.c ****     rgblight_timer_init(); // setup the timer
 179:quantum/rgblight.c ****   #endif
 180:quantum/rgblight.c **** 
 181:quantum/rgblight.c ****   if (rgblight_config.enable) {
 182:quantum/rgblight.c ****     rgblight_mode(rgblight_config.mode);
 183:quantum/rgblight.c ****   }
 184:quantum/rgblight.c **** }
 185:quantum/rgblight.c **** 
 186:quantum/rgblight.c **** void rgblight_update_dword(uint32_t dword) {
 187:quantum/rgblight.c ****   rgblight_config.raw = dword;
 188:quantum/rgblight.c ****   eeconfig_update_rgblight(rgblight_config.raw);
 189:quantum/rgblight.c ****   if (rgblight_config.enable)
 190:quantum/rgblight.c ****     rgblight_mode(rgblight_config.mode);
 191:quantum/rgblight.c ****   else {
 192:quantum/rgblight.c ****     #ifdef RGBLIGHT_ANIMATIONS
 193:quantum/rgblight.c ****       rgblight_timer_disable();
 194:quantum/rgblight.c ****     #endif
 195:quantum/rgblight.c ****       rgblight_set();
 196:quantum/rgblight.c ****   }
 197:quantum/rgblight.c **** }
 198:quantum/rgblight.c **** 
 199:quantum/rgblight.c **** void rgblight_increase(void) {
 200:quantum/rgblight.c ****   uint8_t mode = 0;
 201:quantum/rgblight.c ****   if (rgblight_config.mode < RGBLIGHT_MODES) {
 202:quantum/rgblight.c ****     mode = rgblight_config.mode + 1;
 203:quantum/rgblight.c ****   }
 204:quantum/rgblight.c ****   rgblight_mode(mode);
 205:quantum/rgblight.c **** }
 206:quantum/rgblight.c **** void rgblight_decrease(void) {
 207:quantum/rgblight.c ****   uint8_t mode = 0;
 208:quantum/rgblight.c ****   // Mode will never be < 1. If it ever is, eeprom needs to be initialized.
 209:quantum/rgblight.c ****   if (rgblight_config.mode > 1) {
 210:quantum/rgblight.c ****     mode = rgblight_config.mode - 1;
 211:quantum/rgblight.c ****   }
 212:quantum/rgblight.c ****   rgblight_mode(mode);
 213:quantum/rgblight.c **** }
 214:quantum/rgblight.c **** void rgblight_step(void) {
 215:quantum/rgblight.c ****   uint8_t mode = 0;
 216:quantum/rgblight.c ****   mode = rgblight_config.mode + 1;
 217:quantum/rgblight.c ****   if (mode > RGBLIGHT_MODES) {
 218:quantum/rgblight.c ****     mode = 1;
 219:quantum/rgblight.c ****   }
 220:quantum/rgblight.c ****   rgblight_mode(mode);
 221:quantum/rgblight.c **** }
 222:quantum/rgblight.c **** 
 223:quantum/rgblight.c **** void rgblight_mode(uint8_t mode) {
 224:quantum/rgblight.c ****   if (!rgblight_config.enable) {
 225:quantum/rgblight.c ****     return;
 226:quantum/rgblight.c ****   }
 227:quantum/rgblight.c ****   if (mode < 1) {
 228:quantum/rgblight.c ****     rgblight_config.mode = 1;
 229:quantum/rgblight.c ****   } else if (mode > RGBLIGHT_MODES) {
 230:quantum/rgblight.c ****     rgblight_config.mode = RGBLIGHT_MODES;
 231:quantum/rgblight.c ****   } else {
 232:quantum/rgblight.c ****     rgblight_config.mode = mode;
 233:quantum/rgblight.c ****   }
 234:quantum/rgblight.c ****   eeconfig_update_rgblight(rgblight_config.raw);
 235:quantum/rgblight.c ****   xprintf("rgblight mode: %u\n", rgblight_config.mode);
 236:quantum/rgblight.c ****   if (rgblight_config.mode == 1) {
 237:quantum/rgblight.c ****     #ifdef RGBLIGHT_ANIMATIONS
 238:quantum/rgblight.c ****       rgblight_timer_disable();
 239:quantum/rgblight.c ****     #endif
 240:quantum/rgblight.c ****   } else if (rgblight_config.mode >= 2 && rgblight_config.mode <= 23) {
 241:quantum/rgblight.c ****     // MODE 2-5, breathing
 242:quantum/rgblight.c ****     // MODE 6-8, rainbow mood
 243:quantum/rgblight.c ****     // MODE 9-14, rainbow swirl
 244:quantum/rgblight.c ****     // MODE 15-20, snake
 245:quantum/rgblight.c ****     // MODE 21-23, knight
 246:quantum/rgblight.c **** 
 247:quantum/rgblight.c ****     #ifdef RGBLIGHT_ANIMATIONS
 248:quantum/rgblight.c ****       rgblight_timer_enable();
 249:quantum/rgblight.c ****     #endif
 250:quantum/rgblight.c ****   }
 251:quantum/rgblight.c ****   rgblight_sethsv(rgblight_config.hue, rgblight_config.sat, rgblight_config.val);
 252:quantum/rgblight.c **** }
 253:quantum/rgblight.c **** 
 254:quantum/rgblight.c **** void rgblight_toggle(void) {
 255:quantum/rgblight.c ****   rgblight_config.enable ^= 1;
 256:quantum/rgblight.c ****   eeconfig_update_rgblight(rgblight_config.raw);
 257:quantum/rgblight.c ****   xprintf("rgblight toggle: rgblight_config.enable = %u\n", rgblight_config.enable);
 258:quantum/rgblight.c ****   if (rgblight_config.enable) {
 259:quantum/rgblight.c ****     rgblight_mode(rgblight_config.mode);
 260:quantum/rgblight.c ****   } else {
 261:quantum/rgblight.c ****     #ifdef RGBLIGHT_ANIMATIONS
 262:quantum/rgblight.c ****       rgblight_timer_disable();
 263:quantum/rgblight.c ****     #endif
 264:quantum/rgblight.c ****     _delay_ms(50);
 265:quantum/rgblight.c ****     rgblight_set();
 266:quantum/rgblight.c ****   }
 267:quantum/rgblight.c **** }
 268:quantum/rgblight.c **** 
 269:quantum/rgblight.c **** void rgblight_enable(void) {
 270:quantum/rgblight.c ****   rgblight_config.enable = 1;
 271:quantum/rgblight.c ****   eeconfig_update_rgblight(rgblight_config.raw);
 272:quantum/rgblight.c ****   xprintf("rgblight enable: rgblight_config.enable = %u\n", rgblight_config.enable);
 273:quantum/rgblight.c ****   rgblight_mode(rgblight_config.mode);
 274:quantum/rgblight.c **** }
 275:quantum/rgblight.c **** 
 276:quantum/rgblight.c **** 
 277:quantum/rgblight.c **** void rgblight_increase_hue(void) {
 278:quantum/rgblight.c ****   uint16_t hue;
 279:quantum/rgblight.c ****   hue = (rgblight_config.hue+RGBLIGHT_HUE_STEP) % 360;
 280:quantum/rgblight.c ****   rgblight_sethsv(hue, rgblight_config.sat, rgblight_config.val);
 281:quantum/rgblight.c **** }
 282:quantum/rgblight.c **** void rgblight_decrease_hue(void) {
 283:quantum/rgblight.c ****   uint16_t hue;
 284:quantum/rgblight.c ****   if (rgblight_config.hue-RGBLIGHT_HUE_STEP < 0) {
 285:quantum/rgblight.c ****     hue = (rgblight_config.hue + 360 - RGBLIGHT_HUE_STEP) % 360;
 286:quantum/rgblight.c ****   } else {
 287:quantum/rgblight.c ****     hue = (rgblight_config.hue - RGBLIGHT_HUE_STEP) % 360;
 288:quantum/rgblight.c ****   }
 289:quantum/rgblight.c ****   rgblight_sethsv(hue, rgblight_config.sat, rgblight_config.val);
 290:quantum/rgblight.c **** }
 291:quantum/rgblight.c **** void rgblight_increase_sat(void) {
 292:quantum/rgblight.c ****   uint8_t sat;
 293:quantum/rgblight.c ****   if (rgblight_config.sat + RGBLIGHT_SAT_STEP > 255) {
 294:quantum/rgblight.c ****     sat = 255;
 295:quantum/rgblight.c ****   } else {
 296:quantum/rgblight.c ****     sat = rgblight_config.sat + RGBLIGHT_SAT_STEP;
 297:quantum/rgblight.c ****   }
 298:quantum/rgblight.c ****   rgblight_sethsv(rgblight_config.hue, sat, rgblight_config.val);
 299:quantum/rgblight.c **** }
 300:quantum/rgblight.c **** void rgblight_decrease_sat(void) {
 301:quantum/rgblight.c ****   uint8_t sat;
 302:quantum/rgblight.c ****   if (rgblight_config.sat - RGBLIGHT_SAT_STEP < 0) {
 303:quantum/rgblight.c ****     sat = 0;
 304:quantum/rgblight.c ****   } else {
 305:quantum/rgblight.c ****     sat = rgblight_config.sat - RGBLIGHT_SAT_STEP;
 306:quantum/rgblight.c ****   }
 307:quantum/rgblight.c ****   rgblight_sethsv(rgblight_config.hue, sat, rgblight_config.val);
 308:quantum/rgblight.c **** }
 309:quantum/rgblight.c **** void rgblight_increase_val(void) {
 310:quantum/rgblight.c ****   uint8_t val;
 311:quantum/rgblight.c ****   if (rgblight_config.val + RGBLIGHT_VAL_STEP > 255) {
 312:quantum/rgblight.c ****     val = 255;
 313:quantum/rgblight.c ****   } else {
 314:quantum/rgblight.c ****     val = rgblight_config.val + RGBLIGHT_VAL_STEP;
 315:quantum/rgblight.c ****   }
 316:quantum/rgblight.c ****   rgblight_sethsv(rgblight_config.hue, rgblight_config.sat, val);
 317:quantum/rgblight.c **** }
 318:quantum/rgblight.c **** void rgblight_decrease_val(void) {
 319:quantum/rgblight.c ****   uint8_t val;
 320:quantum/rgblight.c ****   if (rgblight_config.val - RGBLIGHT_VAL_STEP < 0) {
 321:quantum/rgblight.c ****     val = 0;
 322:quantum/rgblight.c ****   } else {
 323:quantum/rgblight.c ****     val = rgblight_config.val - RGBLIGHT_VAL_STEP;
 324:quantum/rgblight.c ****   }
 325:quantum/rgblight.c ****   rgblight_sethsv(rgblight_config.hue, rgblight_config.sat, val);
 326:quantum/rgblight.c **** }
 327:quantum/rgblight.c **** 
 328:quantum/rgblight.c **** void rgblight_sethsv_noeeprom(uint16_t hue, uint8_t sat, uint8_t val) {
 329:quantum/rgblight.c ****   inmem_config.raw = rgblight_config.raw;
 330:quantum/rgblight.c ****   if (rgblight_config.enable) {
 331:quantum/rgblight.c ****     LED_TYPE tmp_led;
 332:quantum/rgblight.c ****     sethsv(hue, sat, val, &tmp_led);
 333:quantum/rgblight.c ****     inmem_config.hue = hue;
 334:quantum/rgblight.c ****     inmem_config.sat = sat;
 335:quantum/rgblight.c ****     inmem_config.val = val;
 336:quantum/rgblight.c ****     // dprintf("rgblight set hue [MEMORY]: %u,%u,%u\n", inmem_config.hue, inmem_config.sat, inmem_c
 337:quantum/rgblight.c ****     rgblight_setrgb(tmp_led.r, tmp_led.g, tmp_led.b);
 338:quantum/rgblight.c ****   }
 339:quantum/rgblight.c **** }
 340:quantum/rgblight.c **** void rgblight_sethsv(uint16_t hue, uint8_t sat, uint8_t val) {
 341:quantum/rgblight.c ****   if (rgblight_config.enable) {
 342:quantum/rgblight.c ****     if (rgblight_config.mode == 1) {
 343:quantum/rgblight.c ****       // same static color
 344:quantum/rgblight.c ****       rgblight_sethsv_noeeprom(hue, sat, val);
 345:quantum/rgblight.c ****     } else {
 346:quantum/rgblight.c ****       // all LEDs in same color
 347:quantum/rgblight.c ****       if (rgblight_config.mode >= 2 && rgblight_config.mode <= 5) {
 348:quantum/rgblight.c ****         // breathing mode, ignore the change of val, use in memory value instead
 349:quantum/rgblight.c ****         val = rgblight_config.val;
 350:quantum/rgblight.c ****       } else if (rgblight_config.mode >= 6 && rgblight_config.mode <= 14) {
 351:quantum/rgblight.c ****         // rainbow mood and rainbow swirl, ignore the change of hue
 352:quantum/rgblight.c ****         hue = rgblight_config.hue;
 353:quantum/rgblight.c ****       }
 354:quantum/rgblight.c ****     }
 355:quantum/rgblight.c ****     rgblight_config.hue = hue;
 356:quantum/rgblight.c ****     rgblight_config.sat = sat;
 357:quantum/rgblight.c ****     rgblight_config.val = val;
 358:quantum/rgblight.c ****     eeconfig_update_rgblight(rgblight_config.raw);
 359:quantum/rgblight.c ****     xprintf("rgblight set hsv [EEPROM]: %u,%u,%u\n", rgblight_config.hue, rgblight_config.sat, rgbl
 360:quantum/rgblight.c ****   }
 361:quantum/rgblight.c **** }
 362:quantum/rgblight.c **** 
 363:quantum/rgblight.c **** void rgblight_setrgb(uint8_t r, uint8_t g, uint8_t b) {
 364:quantum/rgblight.c ****   // dprintf("rgblight set rgb: %u,%u,%u\n", r,g,b);
 365:quantum/rgblight.c ****   for (uint8_t i = 0; i < RGBLED_NUM; i++) {
 366:quantum/rgblight.c ****     led[i].r = r;
 367:quantum/rgblight.c ****     led[i].g = g;
 368:quantum/rgblight.c ****     led[i].b = b;
 369:quantum/rgblight.c ****   }
 370:quantum/rgblight.c ****   rgblight_set();
 371:quantum/rgblight.c **** }
 372:quantum/rgblight.c **** 
 373:quantum/rgblight.c **** __attribute__ ((weak))
 374:quantum/rgblight.c **** void rgblight_set(void) {
 506               		.loc 1 374 25 is_stmt 1 view -0
 507               		.cfi_startproc
 508               	/* prologue: function */
 509               	/* frame size = 0 */
 510               	/* stack size = 0 */
 511               	.L__stack_usage = 0
 375:quantum/rgblight.c ****   if (rgblight_config.enable) {
 512               		.loc 1 375 3 view .LVU127
 513               		.loc 1 375 7 is_stmt 0 view .LVU128
 514 0000 8091 0000 		lds r24,rgblight_config
 515               		.loc 1 375 6 view .LVU129
 516 0004 80FD      		sbrc r24,0
 517 0006 00C0      		rjmp .L19
 518               	.LVL33:
 519               	.LBB14:
 376:quantum/rgblight.c ****     #ifdef RGBW
 377:quantum/rgblight.c ****       ws2812_setleds_rgbw(led, RGBLED_NUM);
 378:quantum/rgblight.c ****     #else
 379:quantum/rgblight.c ****       ws2812_setleds(led, RGBLED_NUM);
 380:quantum/rgblight.c ****     #endif
 381:quantum/rgblight.c ****   } else {
 382:quantum/rgblight.c ****     for (uint8_t i = 0; i < RGBLED_NUM; i++) {
 520               		.loc 1 382 25 is_stmt 1 view .LVU130
 383:quantum/rgblight.c ****       led[i].r = 0;
 521               		.loc 1 383 7 view .LVU131
 522               		.loc 1 383 16 is_stmt 0 view .LVU132
 523 0008 1092 0000 		sts led+1,__zero_reg__
 384:quantum/rgblight.c ****       led[i].g = 0;
 524               		.loc 1 384 7 is_stmt 1 view .LVU133
 525               		.loc 1 384 16 is_stmt 0 view .LVU134
 526 000c 1092 0000 		sts led,__zero_reg__
 385:quantum/rgblight.c ****       led[i].b = 0;
 527               		.loc 1 385 7 is_stmt 1 view .LVU135
 528               		.loc 1 385 16 is_stmt 0 view .LVU136
 529 0010 1092 0000 		sts led+2,__zero_reg__
 382:quantum/rgblight.c ****       led[i].r = 0;
 530               		.loc 1 382 41 is_stmt 1 view .LVU137
 531               	.LVL34:
 382:quantum/rgblight.c ****       led[i].r = 0;
 532               		.loc 1 382 25 view .LVU138
 383:quantum/rgblight.c ****       led[i].g = 0;
 533               		.loc 1 383 7 view .LVU139
 383:quantum/rgblight.c ****       led[i].g = 0;
 534               		.loc 1 383 16 is_stmt 0 view .LVU140
 535 0014 1092 0000 		sts led+4,__zero_reg__
 384:quantum/rgblight.c ****       led[i].b = 0;
 536               		.loc 1 384 7 is_stmt 1 view .LVU141
 384:quantum/rgblight.c ****       led[i].b = 0;
 537               		.loc 1 384 16 is_stmt 0 view .LVU142
 538 0018 1092 0000 		sts led+3,__zero_reg__
 539               		.loc 1 385 7 is_stmt 1 view .LVU143
 540               		.loc 1 385 16 is_stmt 0 view .LVU144
 541 001c 1092 0000 		sts led+5,__zero_reg__
 382:quantum/rgblight.c ****       led[i].r = 0;
 542               		.loc 1 382 41 is_stmt 1 view .LVU145
 543               	.LVL35:
 382:quantum/rgblight.c ****       led[i].r = 0;
 544               		.loc 1 382 25 view .LVU146
 545               	.LBE14:
 386:quantum/rgblight.c ****     }
 387:quantum/rgblight.c ****     #ifdef RGBW
 388:quantum/rgblight.c ****       ws2812_setleds_rgbw(led, RGBLED_NUM);
 389:quantum/rgblight.c ****     #else
 390:quantum/rgblight.c ****       ws2812_setleds(led, RGBLED_NUM);
 546               		.loc 1 390 7 view .LVU147
 547               	.L19:
 379:quantum/rgblight.c ****     #endif
 548               		.loc 1 379 7 view .LVU148
 549 0020 62E0      		ldi r22,lo8(2)
 550 0022 70E0      		ldi r23,0
 551 0024 80E0      		ldi r24,lo8(led)
 552 0026 90E0      		ldi r25,hi8(led)
 553 0028 0C94 0000 		jmp ws2812_setleds
 554               	.LVL36:
 555               		.cfi_endproc
 556               	.LFE30:
 558               		.section	.text.rgblight_setrgb,"ax",@progbits
 559               	.global	rgblight_setrgb
 561               	rgblight_setrgb:
 562               	.LVL37:
 563               	.LFB29:
 363:quantum/rgblight.c ****   // dprintf("rgblight set rgb: %u,%u,%u\n", r,g,b);
 564               		.loc 1 363 55 view -0
 565               		.cfi_startproc
 566               	/* prologue: function */
 567               	/* frame size = 0 */
 568               	/* stack size = 0 */
 569               	.L__stack_usage = 0
 365:quantum/rgblight.c ****     led[i].r = r;
 570               		.loc 1 365 3 view .LVU150
 571               	.LBB15:
 365:quantum/rgblight.c ****     led[i].r = r;
 572               		.loc 1 365 8 view .LVU151
 365:quantum/rgblight.c ****     led[i].r = r;
 573               		.loc 1 365 23 view .LVU152
 366:quantum/rgblight.c ****     led[i].g = g;
 574               		.loc 1 366 5 view .LVU153
 366:quantum/rgblight.c ****     led[i].g = g;
 575               		.loc 1 366 14 is_stmt 0 view .LVU154
 576 0000 E0E0      		ldi r30,lo8(led)
 577 0002 F0E0      		ldi r31,hi8(led)
 578 0004 8183      		std Z+1,r24
 367:quantum/rgblight.c ****     led[i].b = b;
 579               		.loc 1 367 5 is_stmt 1 view .LVU155
 367:quantum/rgblight.c ****     led[i].b = b;
 580               		.loc 1 367 14 is_stmt 0 view .LVU156
 581 0006 6083      		st Z,r22
 368:quantum/rgblight.c ****   }
 582               		.loc 1 368 5 is_stmt 1 view .LVU157
 368:quantum/rgblight.c ****   }
 583               		.loc 1 368 14 is_stmt 0 view .LVU158
 584 0008 4283      		std Z+2,r20
 365:quantum/rgblight.c ****     led[i].r = r;
 585               		.loc 1 365 39 is_stmt 1 view .LVU159
 586               	.LVL38:
 365:quantum/rgblight.c ****     led[i].r = r;
 587               		.loc 1 365 23 view .LVU160
 366:quantum/rgblight.c ****     led[i].g = g;
 588               		.loc 1 366 5 view .LVU161
 366:quantum/rgblight.c ****     led[i].g = g;
 589               		.loc 1 366 14 is_stmt 0 view .LVU162
 590 000a 8483      		std Z+4,r24
 367:quantum/rgblight.c ****     led[i].b = b;
 591               		.loc 1 367 5 is_stmt 1 view .LVU163
 367:quantum/rgblight.c ****     led[i].b = b;
 592               		.loc 1 367 14 is_stmt 0 view .LVU164
 593 000c 6383      		std Z+3,r22
 368:quantum/rgblight.c ****   }
 594               		.loc 1 368 5 is_stmt 1 view .LVU165
 368:quantum/rgblight.c ****   }
 595               		.loc 1 368 14 is_stmt 0 view .LVU166
 596 000e 4583      		std Z+5,r20
 365:quantum/rgblight.c ****     led[i].r = r;
 597               		.loc 1 365 39 is_stmt 1 view .LVU167
 598               	.LVL39:
 365:quantum/rgblight.c ****     led[i].r = r;
 599               		.loc 1 365 23 view .LVU168
 600               	.LBE15:
 370:quantum/rgblight.c **** }
 601               		.loc 1 370 3 view .LVU169
 602 0010 0C94 0000 		jmp rgblight_set
 603               	.LVL40:
 370:quantum/rgblight.c **** }
 604               		.loc 1 370 3 is_stmt 0 view .LVU170
 605               		.cfi_endproc
 606               	.LFE29:
 608               		.section	.text.rgblight_sethsv_noeeprom,"ax",@progbits
 609               	.global	rgblight_sethsv_noeeprom
 611               	rgblight_sethsv_noeeprom:
 612               	.LVL41:
 613               	.LFB27:
 328:quantum/rgblight.c ****   inmem_config.raw = rgblight_config.raw;
 614               		.loc 1 328 71 is_stmt 1 view -0
 615               		.cfi_startproc
 328:quantum/rgblight.c ****   inmem_config.raw = rgblight_config.raw;
 616               		.loc 1 328 71 is_stmt 0 view .LVU172
 617 0000 EF92      		push r14
 618               	.LCFI14:
 619               		.cfi_def_cfa_offset 3
 620               		.cfi_offset 14, -2
 621 0002 FF92      		push r15
 622               	.LCFI15:
 623               		.cfi_def_cfa_offset 4
 624               		.cfi_offset 15, -3
 625 0004 0F93      		push r16
 626               	.LCFI16:
 627               		.cfi_def_cfa_offset 5
 628               		.cfi_offset 16, -4
 629 0006 1F93      		push r17
 630               	.LCFI17:
 631               		.cfi_def_cfa_offset 6
 632               		.cfi_offset 17, -5
 633 0008 CF93      		push r28
 634               	.LCFI18:
 635               		.cfi_def_cfa_offset 7
 636               		.cfi_offset 28, -6
 637 000a DF93      		push r29
 638               	.LCFI19:
 639               		.cfi_def_cfa_offset 8
 640               		.cfi_offset 29, -7
 641 000c 00D0      		rcall .
 642 000e 0F92      		push __tmp_reg__
 643               	.LCFI20:
 644               		.cfi_def_cfa_offset 11
 645 0010 CDB7      		in r28,__SP_L__
 646 0012 DEB7      		in r29,__SP_H__
 647               	.LCFI21:
 648               		.cfi_def_cfa_register 28
 649               	/* prologue: function */
 650               	/* frame size = 3 */
 651               	/* stack size = 9 */
 652               	.L__stack_usage = 9
 653 0014 182F      		mov r17,r24
 654 0016 E92E      		mov r14,r25
 655 0018 F62E      		mov r15,r22
 656 001a 042F      		mov r16,r20
 329:quantum/rgblight.c ****   if (rgblight_config.enable) {
 657               		.loc 1 329 3 is_stmt 1 view .LVU173
 329:quantum/rgblight.c ****   if (rgblight_config.enable) {
 658               		.loc 1 329 20 is_stmt 0 view .LVU174
 659 001c 8091 0000 		lds r24,rgblight_config
 660 0020 9091 0000 		lds r25,rgblight_config+1
 661 0024 A091 0000 		lds r26,rgblight_config+2
 662 0028 B091 0000 		lds r27,rgblight_config+3
 663               	.LVL42:
 329:quantum/rgblight.c ****   if (rgblight_config.enable) {
 664               		.loc 1 329 20 view .LVU175
 665 002c 8093 0000 		sts inmem_config,r24
 666 0030 9093 0000 		sts inmem_config+1,r25
 667 0034 A093 0000 		sts inmem_config+2,r26
 668 0038 B093 0000 		sts inmem_config+3,r27
 330:quantum/rgblight.c ****     LED_TYPE tmp_led;
 669               		.loc 1 330 3 is_stmt 1 view .LVU176
 330:quantum/rgblight.c ****     LED_TYPE tmp_led;
 670               		.loc 1 330 7 is_stmt 0 view .LVU177
 671 003c 8091 0000 		lds r24,rgblight_config
 330:quantum/rgblight.c ****     LED_TYPE tmp_led;
 672               		.loc 1 330 6 view .LVU178
 673 0040 80FF      		sbrs r24,0
 674 0042 00C0      		rjmp .L21
 675               	.LBB16:
 331:quantum/rgblight.c ****     sethsv(hue, sat, val, &tmp_led);
 676               		.loc 1 331 5 is_stmt 1 view .LVU179
 332:quantum/rgblight.c ****     inmem_config.hue = hue;
 677               		.loc 1 332 5 view .LVU180
 678 0044 9E01      		movw r18,r28
 679 0046 2F5F      		subi r18,-1
 680 0048 3F4F      		sbci r19,-1
 681 004a 812F      		mov r24,r17
 682 004c 9E2D      		mov r25,r14
 683 004e 0E94 0000 		call sethsv
 684               	.LVL43:
 333:quantum/rgblight.c ****     inmem_config.sat = sat;
 685               		.loc 1 333 5 view .LVU181
 333:quantum/rgblight.c ****     inmem_config.sat = sat;
 686               		.loc 1 333 22 is_stmt 0 view .LVU182
 687 0052 8091 0000 		lds r24,inmem_config
 688 0056 10FB      		bst r17,0
 689 0058 87F9      		bld r24,7
 690 005a 8093 0000 		sts inmem_config,r24
 691 005e 1695      		lsr r17
 692 0060 8091 0000 		lds r24,inmem_config+1
 693 0064 8078      		andi r24,lo8(-128)
 694 0066 182B      		or r17,r24
 695 0068 E0FA      		bst r14,0
 696 006a 17F9      		bld r17,7
 697 006c 1093 0000 		sts inmem_config+1,r17
 334:quantum/rgblight.c ****     inmem_config.val = val;
 698               		.loc 1 334 5 is_stmt 1 view .LVU183
 334:quantum/rgblight.c ****     inmem_config.val = val;
 699               		.loc 1 334 22 is_stmt 0 view .LVU184
 700 0070 F092 0000 		sts inmem_config+2,r15
 335:quantum/rgblight.c ****     // dprintf("rgblight set hue [MEMORY]: %u,%u,%u\n", inmem_config.hue, inmem_config.sat, inmem_c
 701               		.loc 1 335 5 is_stmt 1 view .LVU185
 335:quantum/rgblight.c ****     // dprintf("rgblight set hue [MEMORY]: %u,%u,%u\n", inmem_config.hue, inmem_config.sat, inmem_c
 702               		.loc 1 335 22 is_stmt 0 view .LVU186
 703 0074 0093 0000 		sts inmem_config+3,r16
 337:quantum/rgblight.c ****   }
 704               		.loc 1 337 5 is_stmt 1 view .LVU187
 705 0078 4B81      		ldd r20,Y+3
 706 007a 6981      		ldd r22,Y+1
 707 007c 8A81      		ldd r24,Y+2
 708 007e 0E94 0000 		call rgblight_setrgb
 709               	.LVL44:
 710               	.L21:
 711               	/* epilogue start */
 712               	.LBE16:
 339:quantum/rgblight.c **** void rgblight_sethsv(uint16_t hue, uint8_t sat, uint8_t val) {
 713               		.loc 1 339 1 is_stmt 0 view .LVU188
 714 0082 0F90      		pop __tmp_reg__
 715 0084 0F90      		pop __tmp_reg__
 716 0086 0F90      		pop __tmp_reg__
 717 0088 DF91      		pop r29
 718 008a CF91      		pop r28
 719 008c 1F91      		pop r17
 720 008e 0F91      		pop r16
 721               	.LVL45:
 339:quantum/rgblight.c **** void rgblight_sethsv(uint16_t hue, uint8_t sat, uint8_t val) {
 722               		.loc 1 339 1 view .LVU189
 723 0090 FF90      		pop r15
 724               	.LVL46:
 339:quantum/rgblight.c **** void rgblight_sethsv(uint16_t hue, uint8_t sat, uint8_t val) {
 725               		.loc 1 339 1 view .LVU190
 726 0092 EF90      		pop r14
 727 0094 0895      		ret
 728               		.cfi_endproc
 729               	.LFE27:
 731               		.section	.text.rgblight_sethsv,"ax",@progbits
 732               	.global	rgblight_sethsv
 734               	rgblight_sethsv:
 735               	.LVL47:
 736               	.LFB28:
 340:quantum/rgblight.c ****   if (rgblight_config.enable) {
 737               		.loc 1 340 62 is_stmt 1 view -0
 738               		.cfi_startproc
 340:quantum/rgblight.c ****   if (rgblight_config.enable) {
 739               		.loc 1 340 62 is_stmt 0 view .LVU192
 740 0000 0F93      		push r16
 741               	.LCFI22:
 742               		.cfi_def_cfa_offset 3
 743               		.cfi_offset 16, -2
 744 0002 1F93      		push r17
 745               	.LCFI23:
 746               		.cfi_def_cfa_offset 4
 747               		.cfi_offset 17, -3
 748 0004 CF93      		push r28
 749               	.LCFI24:
 750               		.cfi_def_cfa_offset 5
 751               		.cfi_offset 28, -4
 752 0006 DF93      		push r29
 753               	.LCFI25:
 754               		.cfi_def_cfa_offset 6
 755               		.cfi_offset 29, -5
 756 0008 00D0      		rcall .
 757 000a 00D0      		rcall .
 758 000c 0F92      		push __tmp_reg__
 759               	.LCFI26:
 760               		.cfi_def_cfa_offset 11
 761 000e CDB7      		in r28,__SP_L__
 762 0010 DEB7      		in r29,__SP_H__
 763               	.LCFI27:
 764               		.cfi_def_cfa_register 28
 765               	/* prologue: function */
 766               	/* frame size = 5 */
 767               	/* stack size = 9 */
 768               	.L__stack_usage = 9
 769 0012 8983      		std Y+1,r24
 770 0014 9D83      		std Y+5,r25
 771 0016 062F      		mov r16,r22
 772 0018 142F      		mov r17,r20
 341:quantum/rgblight.c ****     if (rgblight_config.mode == 1) {
 773               		.loc 1 341 3 is_stmt 1 view .LVU193
 341:quantum/rgblight.c ****     if (rgblight_config.mode == 1) {
 774               		.loc 1 341 7 is_stmt 0 view .LVU194
 775 001a 8091 0000 		lds r24,rgblight_config
 776               	.LVL48:
 341:quantum/rgblight.c ****     if (rgblight_config.mode == 1) {
 777               		.loc 1 341 6 view .LVU195
 778 001e 80FF      		sbrs r24,0
 779 0020 00C0      		rjmp .L26
 342:quantum/rgblight.c ****       // same static color
 780               		.loc 1 342 5 is_stmt 1 view .LVU196
 342:quantum/rgblight.c ****       // same static color
 781               		.loc 1 342 30 is_stmt 0 view .LVU197
 782 0022 982F      		mov r25,r24
 783 0024 9E77      		andi r25,lo8(126)
 342:quantum/rgblight.c ****       // same static color
 784               		.loc 1 342 8 view .LVU198
 785 0026 9230      		cpi r25,lo8(2)
 786 0028 01F4      		brne .L28
 344:quantum/rgblight.c ****     } else {
 787               		.loc 1 344 7 is_stmt 1 view .LVU199
 788 002a 8981      		ldd r24,Y+1
 789 002c 9D81      		ldd r25,Y+5
 790 002e 0E94 0000 		call rgblight_sethsv_noeeprom
 791               	.LVL49:
 792               	.L29:
 355:quantum/rgblight.c ****     rgblight_config.sat = sat;
 793               		.loc 1 355 5 view .LVU200
 355:quantum/rgblight.c ****     rgblight_config.sat = sat;
 794               		.loc 1 355 25 is_stmt 0 view .LVU201
 795 0032 8091 0000 		lds r24,rgblight_config
 796 0036 B981      		ldd r27,Y+1
 797 0038 B0FB      		bst r27,0
 798 003a 87F9      		bld r24,7
 799 003c 8093 0000 		sts rgblight_config,r24
 800 0040 B695      		lsr r27
 801 0042 8091 0000 		lds r24,rgblight_config+1
 802 0046 8078      		andi r24,lo8(-128)
 803 0048 B82B      		or r27,r24
 804 004a 8D81      		ldd r24,Y+5
 805 004c 80FB      		bst r24,0
 806 004e B7F9      		bld r27,7
 807 0050 B093 0000 		sts rgblight_config+1,r27
 356:quantum/rgblight.c ****     rgblight_config.val = val;
 808               		.loc 1 356 5 is_stmt 1 view .LVU202
 356:quantum/rgblight.c ****     rgblight_config.val = val;
 809               		.loc 1 356 25 is_stmt 0 view .LVU203
 810 0054 0093 0000 		sts rgblight_config+2,r16
 357:quantum/rgblight.c ****     eeconfig_update_rgblight(rgblight_config.raw);
 811               		.loc 1 357 5 is_stmt 1 view .LVU204
 357:quantum/rgblight.c ****     eeconfig_update_rgblight(rgblight_config.raw);
 812               		.loc 1 357 25 is_stmt 0 view .LVU205
 813 0058 1093 0000 		sts rgblight_config+3,r17
 358:quantum/rgblight.c ****     xprintf("rgblight set hsv [EEPROM]: %u,%u,%u\n", rgblight_config.hue, rgblight_config.sat, rgbl
 814               		.loc 1 358 5 is_stmt 1 view .LVU206
 815 005c 8091 0000 		lds r24,rgblight_config
 816 0060 9091 0000 		lds r25,rgblight_config+1
 817 0064 A091 0000 		lds r26,rgblight_config+2
 818 0068 B091 0000 		lds r27,rgblight_config+3
 819 006c 8983      		std Y+1,r24
 820 006e 9A83      		std Y+2,r25
 821 0070 AB83      		std Y+3,r26
 822 0072 BC83      		std Y+4,r27
 823               	.LVL50:
 358:quantum/rgblight.c ****     xprintf("rgblight set hsv [EEPROM]: %u,%u,%u\n", rgblight_config.hue, rgblight_config.sat, rgbl
 824               		.loc 1 358 5 is_stmt 0 view .LVU207
 825 0074 BC01      		movw r22,r24
 826 0076 CD01      		movw r24,r26
 827               	/* epilogue start */
 361:quantum/rgblight.c **** 
 828               		.loc 1 361 1 view .LVU208
 829 0078 0F90      		pop __tmp_reg__
 830 007a 0F90      		pop __tmp_reg__
 831 007c 0F90      		pop __tmp_reg__
 832 007e 0F90      		pop __tmp_reg__
 833 0080 0F90      		pop __tmp_reg__
 834 0082 DF91      		pop r29
 835 0084 CF91      		pop r28
 836 0086 1F91      		pop r17
 837               	.LVL51:
 361:quantum/rgblight.c **** 
 838               		.loc 1 361 1 view .LVU209
 839 0088 0F91      		pop r16
 840               	.LVL52:
 358:quantum/rgblight.c ****     xprintf("rgblight set hsv [EEPROM]: %u,%u,%u\n", rgblight_config.hue, rgblight_config.sat, rgbl
 841               		.loc 1 358 5 view .LVU210
 842 008a 0C94 0000 		jmp eeconfig_update_rgblight
 843               	.LVL53:
 844               	.L28:
 347:quantum/rgblight.c ****         // breathing mode, ignore the change of val, use in memory value instead
 845               		.loc 1 347 7 is_stmt 1 view .LVU211
 347:quantum/rgblight.c ****         // breathing mode, ignore the change of val, use in memory value instead
 846               		.loc 1 347 26 is_stmt 0 view .LVU212
 847 008e 982F      		mov r25,r24
 848 0090 9695      		lsr r25
 849 0092 9F73      		andi r25,lo8(63)
 347:quantum/rgblight.c ****         // breathing mode, ignore the change of val, use in memory value instead
 850               		.loc 1 347 37 view .LVU213
 851 0094 2EE3      		ldi r18,lo8(62)
 852 0096 290F      		add r18,r25
 853 0098 2F73      		andi r18,lo8(63)
 347:quantum/rgblight.c ****         // breathing mode, ignore the change of val, use in memory value instead
 854               		.loc 1 347 10 view .LVU214
 855 009a 2430      		cpi r18,lo8(4)
 856 009c 00F4      		brsh .L30
 349:quantum/rgblight.c ****       } else if (rgblight_config.mode >= 6 && rgblight_config.mode <= 14) {
 857               		.loc 1 349 9 is_stmt 1 view .LVU215
 349:quantum/rgblight.c ****       } else if (rgblight_config.mode >= 6 && rgblight_config.mode <= 14) {
 858               		.loc 1 349 13 is_stmt 0 view .LVU216
 859 009e 1091 0000 		lds r17,rgblight_config+3
 860               	.LVL54:
 349:quantum/rgblight.c ****       } else if (rgblight_config.mode >= 6 && rgblight_config.mode <= 14) {
 861               		.loc 1 349 13 view .LVU217
 862 00a2 00C0      		rjmp .L29
 863               	.L30:
 350:quantum/rgblight.c ****         // rainbow mood and rainbow swirl, ignore the change of hue
 864               		.loc 1 350 14 is_stmt 1 view .LVU218
 350:quantum/rgblight.c ****         // rainbow mood and rainbow swirl, ignore the change of hue
 865               		.loc 1 350 44 is_stmt 0 view .LVU219
 866 00a4 965C      		subi r25,lo8(-(58))
 867 00a6 9F73      		andi r25,lo8(63)
 350:quantum/rgblight.c ****         // rainbow mood and rainbow swirl, ignore the change of hue
 868               		.loc 1 350 17 view .LVU220
 869 00a8 9930      		cpi r25,lo8(9)
 870 00aa 00F4      		brsh .L29
 352:quantum/rgblight.c ****       }
 871               		.loc 1 352 9 is_stmt 1 view .LVU221
 352:quantum/rgblight.c ****       }
 872               		.loc 1 352 30 is_stmt 0 view .LVU222
 873 00ac 881F      		rol r24
 874 00ae 8827      		clr r24
 875 00b0 881F      		rol r24
 876 00b2 9091 0000 		lds r25,rgblight_config+1
 877 00b6 9D83      		std Y+5,r25
 878 00b8 990F      		lsl r25
 879 00ba 982B      		or r25,r24
 880 00bc 9983      		std Y+1,r25
 881 00be AD81      		ldd r26,Y+5
 882 00c0 A7FB      		bst r26,7
 883 00c2 AA27      		clr r26
 884 00c4 A0F9      		bld r26,0
 885 00c6 AD83      		std Y+5,r26
 886               	.LVL55:
 352:quantum/rgblight.c ****       }
 887               		.loc 1 352 30 view .LVU223
 888 00c8 00C0      		rjmp .L29
 889               	.LVL56:
 890               	.L26:
 891               	/* epilogue start */
 361:quantum/rgblight.c **** 
 892               		.loc 1 361 1 view .LVU224
 893 00ca 0F90      		pop __tmp_reg__
 894 00cc 0F90      		pop __tmp_reg__
 895 00ce 0F90      		pop __tmp_reg__
 896 00d0 0F90      		pop __tmp_reg__
 897 00d2 0F90      		pop __tmp_reg__
 898 00d4 DF91      		pop r29
 899 00d6 CF91      		pop r28
 900 00d8 1F91      		pop r17
 901               	.LVL57:
 361:quantum/rgblight.c **** 
 902               		.loc 1 361 1 view .LVU225
 903 00da 0F91      		pop r16
 904               	.LVL58:
 361:quantum/rgblight.c **** 
 905               		.loc 1 361 1 view .LVU226
 906 00dc 0895      		ret
 907               		.cfi_endproc
 908               	.LFE28:
 910               		.section	.text.rgblight_increase_hue,"ax",@progbits
 911               	.global	rgblight_increase_hue
 913               	rgblight_increase_hue:
 914               	.LFB21:
 277:quantum/rgblight.c ****   uint16_t hue;
 915               		.loc 1 277 34 is_stmt 1 view -0
 916               		.cfi_startproc
 917               	/* prologue: function */
 918               	/* frame size = 0 */
 919               	/* stack size = 0 */
 920               	.L__stack_usage = 0
 278:quantum/rgblight.c ****   hue = (rgblight_config.hue+RGBLIGHT_HUE_STEP) % 360;
 921               		.loc 1 278 3 view .LVU228
 279:quantum/rgblight.c ****   rgblight_sethsv(hue, rgblight_config.sat, rgblight_config.val);
 922               		.loc 1 279 3 view .LVU229
 923               	.LVL59:
 280:quantum/rgblight.c **** }
 924               		.loc 1 280 3 view .LVU230
 925 0000 E0E0      		ldi r30,lo8(rgblight_config)
 926 0002 F0E0      		ldi r31,hi8(rgblight_config)
 927               	.LVL60:
 279:quantum/rgblight.c ****   rgblight_sethsv(hue, rgblight_config.sat, rgblight_config.val);
 928               		.loc 1 279 25 is_stmt 0 view .LVU231
 929 0004 2081      		ld r18,Z
 930 0006 221F      		rol r18
 931 0008 2227      		clr r18
 932 000a 221F      		rol r18
 933 000c 3091 0000 		lds r19,rgblight_config+1
 934 0010 432F      		mov r20,r19
 935 0012 440F      		lsl r20
 936 0014 842F      		mov r24,r20
 937 0016 822B      		or r24,r18
 938 0018 37FB      		bst r19,7
 939 001a 9927      		clr r25
 940 001c 90F9      		bld r25,0
 279:quantum/rgblight.c ****   rgblight_sethsv(hue, rgblight_config.sat, rgblight_config.val);
 941               		.loc 1 279 29 view .LVU232
 942 001e 0896      		adiw r24,8
 279:quantum/rgblight.c ****   rgblight_sethsv(hue, rgblight_config.sat, rgblight_config.val);
 943               		.loc 1 279 49 view .LVU233
 944 0020 68E6      		ldi r22,lo8(104)
 945 0022 71E0      		ldi r23,lo8(1)
 946 0024 0E94 0000 		call __divmodhi4
 280:quantum/rgblight.c **** }
 947               		.loc 1 280 3 view .LVU234
 948 0028 4381      		ldd r20,Z+3
 949 002a 6281      		ldd r22,Z+2
 950 002c 0C94 0000 		jmp rgblight_sethsv
 951               	.LVL61:
 280:quantum/rgblight.c **** }
 952               		.loc 1 280 3 view .LVU235
 953               		.cfi_endproc
 954               	.LFE21:
 956               		.section	.text.rgblight_decrease_hue,"ax",@progbits
 957               	.global	rgblight_decrease_hue
 959               	rgblight_decrease_hue:
 960               	.LFB22:
 282:quantum/rgblight.c ****   uint16_t hue;
 961               		.loc 1 282 34 is_stmt 1 view -0
 962               		.cfi_startproc
 963               	/* prologue: function */
 964               	/* frame size = 0 */
 965               	/* stack size = 0 */
 966               	.L__stack_usage = 0
 283:quantum/rgblight.c ****   if (rgblight_config.hue-RGBLIGHT_HUE_STEP < 0) {
 967               		.loc 1 283 3 view .LVU237
 284:quantum/rgblight.c ****     hue = (rgblight_config.hue + 360 - RGBLIGHT_HUE_STEP) % 360;
 968               		.loc 1 284 3 view .LVU238
 284:quantum/rgblight.c ****     hue = (rgblight_config.hue + 360 - RGBLIGHT_HUE_STEP) % 360;
 969               		.loc 1 284 22 is_stmt 0 view .LVU239
 970 0000 2091 0000 		lds r18,rgblight_config
 971 0004 221F      		rol r18
 972 0006 2227      		clr r18
 973 0008 221F      		rol r18
 974 000a 3091 0000 		lds r19,rgblight_config+1
 975 000e 432F      		mov r20,r19
 976 0010 440F      		lsl r20
 977 0012 842F      		mov r24,r20
 978 0014 822B      		or r24,r18
 979 0016 37FB      		bst r19,7
 980 0018 9927      		clr r25
 981 001a 90F9      		bld r25,0
 284:quantum/rgblight.c ****     hue = (rgblight_config.hue + 360 - RGBLIGHT_HUE_STEP) % 360;
 982               		.loc 1 284 6 view .LVU240
 983 001c 8830      		cpi r24,8
 984 001e 9105      		cpc r25,__zero_reg__
 985 0020 00F4      		brsh .L33
 285:quantum/rgblight.c ****   } else {
 986               		.loc 1 285 5 is_stmt 1 view .LVU241
 285:quantum/rgblight.c ****   } else {
 987               		.loc 1 285 38 is_stmt 0 view .LVU242
 988 0022 805A      		subi r24,-96
 989 0024 9E4F      		sbci r25,-2
 990               	.LVL62:
 991               	.L34:
 289:quantum/rgblight.c **** }
 992               		.loc 1 289 3 is_stmt 1 view .LVU243
 993 0026 4091 0000 		lds r20,rgblight_config+3
 994 002a 6091 0000 		lds r22,rgblight_config+2
 995 002e 0C94 0000 		jmp rgblight_sethsv
 996               	.LVL63:
 997               	.L33:
 287:quantum/rgblight.c ****   }
 998               		.loc 1 287 5 view .LVU244
 287:quantum/rgblight.c ****   }
 999               		.loc 1 287 32 is_stmt 0 view .LVU245
 1000 0032 0897      		sbiw r24,8
 287:quantum/rgblight.c ****   }
 1001               		.loc 1 287 9 view .LVU246
 1002 0034 68E6      		ldi r22,lo8(104)
 1003 0036 71E0      		ldi r23,lo8(1)
 1004 0038 0E94 0000 		call __divmodhi4
 1005               	.LVL64:
 287:quantum/rgblight.c ****   }
 1006               		.loc 1 287 9 view .LVU247
 1007 003c 00C0      		rjmp .L34
 1008               		.cfi_endproc
 1009               	.LFE22:
 1011               		.section	.text.rgblight_increase_sat,"ax",@progbits
 1012               	.global	rgblight_increase_sat
 1014               	rgblight_increase_sat:
 1015               	.LFB23:
 291:quantum/rgblight.c ****   uint8_t sat;
 1016               		.loc 1 291 34 is_stmt 1 view -0
 1017               		.cfi_startproc
 1018               	/* prologue: function */
 1019               	/* frame size = 0 */
 1020               	/* stack size = 0 */
 1021               	.L__stack_usage = 0
 292:quantum/rgblight.c ****   if (rgblight_config.sat + RGBLIGHT_SAT_STEP > 255) {
 1022               		.loc 1 292 3 view .LVU249
 293:quantum/rgblight.c ****     sat = 255;
 1023               		.loc 1 293 3 view .LVU250
 293:quantum/rgblight.c ****     sat = 255;
 1024               		.loc 1 293 22 is_stmt 0 view .LVU251
 1025 0000 6091 0000 		lds r22,rgblight_config+2
 293:quantum/rgblight.c ****     sat = 255;
 1026               		.loc 1 293 6 view .LVU252
 1027 0004 683F      		cpi r22,lo8(-8)
 1028 0006 00F4      		brsh .L37
 296:quantum/rgblight.c ****   }
 1029               		.loc 1 296 5 is_stmt 1 view .LVU253
 296:quantum/rgblight.c ****   }
 1030               		.loc 1 296 9 is_stmt 0 view .LVU254
 1031 0008 685F      		subi r22,lo8(-(8))
 1032               	.LVL65:
 1033               	.L36:
 298:quantum/rgblight.c **** }
 1034               		.loc 1 298 3 is_stmt 1 view .LVU255
 298:quantum/rgblight.c **** }
 1035               		.loc 1 298 34 is_stmt 0 view .LVU256
 1036 000a 8091 0000 		lds r24,rgblight_config
 1037 000e 881F      		rol r24
 1038 0010 8827      		clr r24
 1039 0012 881F      		rol r24
 1040 0014 9091 0000 		lds r25,rgblight_config+1
 1041 0018 292F      		mov r18,r25
 1042 001a 220F      		lsl r18
 1043 001c 97FB      		bst r25,7
 1044 001e 9927      		clr r25
 1045 0020 90F9      		bld r25,0
 298:quantum/rgblight.c **** }
 1046               		.loc 1 298 3 view .LVU257
 1047 0022 4091 0000 		lds r20,rgblight_config+3
 1048 0026 822B      		or r24,r18
 1049 0028 0C94 0000 		jmp rgblight_sethsv
 1050               	.LVL66:
 1051               	.L37:
 294:quantum/rgblight.c ****   } else {
 1052               		.loc 1 294 9 view .LVU258
 1053 002c 6FEF      		ldi r22,lo8(-1)
 1054 002e 00C0      		rjmp .L36
 1055               		.cfi_endproc
 1056               	.LFE23:
 1058               		.section	.text.rgblight_decrease_sat,"ax",@progbits
 1059               	.global	rgblight_decrease_sat
 1061               	rgblight_decrease_sat:
 1062               	.LFB24:
 300:quantum/rgblight.c ****   uint8_t sat;
 1063               		.loc 1 300 34 is_stmt 1 view -0
 1064               		.cfi_startproc
 1065               	/* prologue: function */
 1066               	/* frame size = 0 */
 1067               	/* stack size = 0 */
 1068               	.L__stack_usage = 0
 301:quantum/rgblight.c ****   if (rgblight_config.sat - RGBLIGHT_SAT_STEP < 0) {
 1069               		.loc 1 301 3 view .LVU260
 302:quantum/rgblight.c ****     sat = 0;
 1070               		.loc 1 302 3 view .LVU261
 302:quantum/rgblight.c ****     sat = 0;
 1071               		.loc 1 302 22 is_stmt 0 view .LVU262
 1072 0000 6091 0000 		lds r22,rgblight_config+2
 302:quantum/rgblight.c ****     sat = 0;
 1073               		.loc 1 302 6 view .LVU263
 1074 0004 6830      		cpi r22,lo8(8)
 1075 0006 00F0      		brlo .L40
 305:quantum/rgblight.c ****   }
 1076               		.loc 1 305 5 is_stmt 1 view .LVU264
 305:quantum/rgblight.c ****   }
 1077               		.loc 1 305 9 is_stmt 0 view .LVU265
 1078 0008 6850      		subi r22,lo8(-(-8))
 1079               	.LVL67:
 1080               	.L39:
 307:quantum/rgblight.c **** }
 1081               		.loc 1 307 3 is_stmt 1 view .LVU266
 307:quantum/rgblight.c **** }
 1082               		.loc 1 307 34 is_stmt 0 view .LVU267
 1083 000a 8091 0000 		lds r24,rgblight_config
 1084 000e 881F      		rol r24
 1085 0010 8827      		clr r24
 1086 0012 881F      		rol r24
 1087 0014 9091 0000 		lds r25,rgblight_config+1
 1088 0018 292F      		mov r18,r25
 1089 001a 220F      		lsl r18
 1090 001c 97FB      		bst r25,7
 1091 001e 9927      		clr r25
 1092 0020 90F9      		bld r25,0
 307:quantum/rgblight.c **** }
 1093               		.loc 1 307 3 view .LVU268
 1094 0022 4091 0000 		lds r20,rgblight_config+3
 1095 0026 822B      		or r24,r18
 1096 0028 0C94 0000 		jmp rgblight_sethsv
 1097               	.LVL68:
 1098               	.L40:
 303:quantum/rgblight.c ****   } else {
 1099               		.loc 1 303 9 view .LVU269
 1100 002c 60E0      		ldi r22,0
 1101 002e 00C0      		rjmp .L39
 1102               		.cfi_endproc
 1103               	.LFE24:
 1105               		.section	.text.rgblight_increase_val,"ax",@progbits
 1106               	.global	rgblight_increase_val
 1108               	rgblight_increase_val:
 1109               	.LFB25:
 309:quantum/rgblight.c ****   uint8_t val;
 1110               		.loc 1 309 34 is_stmt 1 view -0
 1111               		.cfi_startproc
 1112               	/* prologue: function */
 1113               	/* frame size = 0 */
 1114               	/* stack size = 0 */
 1115               	.L__stack_usage = 0
 310:quantum/rgblight.c ****   if (rgblight_config.val + RGBLIGHT_VAL_STEP > 255) {
 1116               		.loc 1 310 3 view .LVU271
 311:quantum/rgblight.c ****     val = 255;
 1117               		.loc 1 311 3 view .LVU272
 311:quantum/rgblight.c ****     val = 255;
 1118               		.loc 1 311 22 is_stmt 0 view .LVU273
 1119 0000 4091 0000 		lds r20,rgblight_config+3
 311:quantum/rgblight.c ****     val = 255;
 1120               		.loc 1 311 6 view .LVU274
 1121 0004 483F      		cpi r20,lo8(-8)
 1122 0006 00F4      		brsh .L43
 314:quantum/rgblight.c ****   }
 1123               		.loc 1 314 5 is_stmt 1 view .LVU275
 314:quantum/rgblight.c ****   }
 1124               		.loc 1 314 9 is_stmt 0 view .LVU276
 1125 0008 485F      		subi r20,lo8(-(8))
 1126               	.LVL69:
 1127               	.L42:
 316:quantum/rgblight.c **** }
 1128               		.loc 1 316 3 is_stmt 1 view .LVU277
 316:quantum/rgblight.c **** }
 1129               		.loc 1 316 34 is_stmt 0 view .LVU278
 1130 000a 8091 0000 		lds r24,rgblight_config
 1131 000e 881F      		rol r24
 1132 0010 8827      		clr r24
 1133 0012 881F      		rol r24
 1134 0014 9091 0000 		lds r25,rgblight_config+1
 1135 0018 292F      		mov r18,r25
 1136 001a 220F      		lsl r18
 1137 001c 97FB      		bst r25,7
 1138 001e 9927      		clr r25
 1139 0020 90F9      		bld r25,0
 316:quantum/rgblight.c **** }
 1140               		.loc 1 316 3 view .LVU279
 1141 0022 6091 0000 		lds r22,rgblight_config+2
 1142 0026 822B      		or r24,r18
 1143 0028 0C94 0000 		jmp rgblight_sethsv
 1144               	.LVL70:
 1145               	.L43:
 312:quantum/rgblight.c ****   } else {
 1146               		.loc 1 312 9 view .LVU280
 1147 002c 4FEF      		ldi r20,lo8(-1)
 1148 002e 00C0      		rjmp .L42
 1149               		.cfi_endproc
 1150               	.LFE25:
 1152               		.section	.text.rgblight_decrease_val,"ax",@progbits
 1153               	.global	rgblight_decrease_val
 1155               	rgblight_decrease_val:
 1156               	.LFB26:
 318:quantum/rgblight.c ****   uint8_t val;
 1157               		.loc 1 318 34 is_stmt 1 view -0
 1158               		.cfi_startproc
 1159               	/* prologue: function */
 1160               	/* frame size = 0 */
 1161               	/* stack size = 0 */
 1162               	.L__stack_usage = 0
 319:quantum/rgblight.c ****   if (rgblight_config.val - RGBLIGHT_VAL_STEP < 0) {
 1163               		.loc 1 319 3 view .LVU282
 320:quantum/rgblight.c ****     val = 0;
 1164               		.loc 1 320 3 view .LVU283
 320:quantum/rgblight.c ****     val = 0;
 1165               		.loc 1 320 22 is_stmt 0 view .LVU284
 1166 0000 4091 0000 		lds r20,rgblight_config+3
 320:quantum/rgblight.c ****     val = 0;
 1167               		.loc 1 320 6 view .LVU285
 1168 0004 4830      		cpi r20,lo8(8)
 1169 0006 00F0      		brlo .L46
 323:quantum/rgblight.c ****   }
 1170               		.loc 1 323 5 is_stmt 1 view .LVU286
 323:quantum/rgblight.c ****   }
 1171               		.loc 1 323 9 is_stmt 0 view .LVU287
 1172 0008 4850      		subi r20,lo8(-(-8))
 1173               	.LVL71:
 1174               	.L45:
 325:quantum/rgblight.c **** }
 1175               		.loc 1 325 3 is_stmt 1 view .LVU288
 325:quantum/rgblight.c **** }
 1176               		.loc 1 325 34 is_stmt 0 view .LVU289
 1177 000a 8091 0000 		lds r24,rgblight_config
 1178 000e 881F      		rol r24
 1179 0010 8827      		clr r24
 1180 0012 881F      		rol r24
 1181 0014 9091 0000 		lds r25,rgblight_config+1
 1182 0018 292F      		mov r18,r25
 1183 001a 220F      		lsl r18
 1184 001c 97FB      		bst r25,7
 1185 001e 9927      		clr r25
 1186 0020 90F9      		bld r25,0
 325:quantum/rgblight.c **** }
 1187               		.loc 1 325 3 view .LVU290
 1188 0022 6091 0000 		lds r22,rgblight_config+2
 1189 0026 822B      		or r24,r18
 1190 0028 0C94 0000 		jmp rgblight_sethsv
 1191               	.LVL72:
 1192               	.L46:
 321:quantum/rgblight.c ****   } else {
 1193               		.loc 1 321 9 view .LVU291
 1194 002c 40E0      		ldi r20,0
 1195 002e 00C0      		rjmp .L45
 1196               		.cfi_endproc
 1197               	.LFE26:
 1199               		.section	.text.rgblight_mode,"ax",@progbits
 1200               	.global	rgblight_mode
 1202               	rgblight_mode:
 1203               	.LVL73:
 1204               	.LFB18:
 223:quantum/rgblight.c ****   if (!rgblight_config.enable) {
 1205               		.loc 1 223 34 is_stmt 1 view -0
 1206               		.cfi_startproc
 223:quantum/rgblight.c ****   if (!rgblight_config.enable) {
 1207               		.loc 1 223 34 is_stmt 0 view .LVU293
 1208 0000 CF93      		push r28
 1209               	.LCFI28:
 1210               		.cfi_def_cfa_offset 3
 1211               		.cfi_offset 28, -2
 1212 0002 DF93      		push r29
 1213               	.LCFI29:
 1214               		.cfi_def_cfa_offset 4
 1215               		.cfi_offset 29, -3
 1216 0004 00D0      		rcall .
 1217 0006 00D0      		rcall .
 1218               	.LCFI30:
 1219               		.cfi_def_cfa_offset 8
 1220 0008 CDB7      		in r28,__SP_L__
 1221 000a DEB7      		in r29,__SP_H__
 1222               	.LCFI31:
 1223               		.cfi_def_cfa_register 28
 1224               	/* prologue: function */
 1225               	/* frame size = 4 */
 1226               	/* stack size = 6 */
 1227               	.L__stack_usage = 6
 224:quantum/rgblight.c ****     return;
 1228               		.loc 1 224 3 is_stmt 1 view .LVU294
 224:quantum/rgblight.c ****     return;
 1229               		.loc 1 224 23 is_stmt 0 view .LVU295
 1230 000c 9091 0000 		lds r25,rgblight_config
 224:quantum/rgblight.c ****     return;
 1231               		.loc 1 224 6 view .LVU296
 1232 0010 90FF      		sbrs r25,0
 1233 0012 00C0      		rjmp .L47
 227:quantum/rgblight.c ****     rgblight_config.mode = 1;
 1234               		.loc 1 227 3 is_stmt 1 view .LVU297
 1235 0014 9178      		andi r25,lo8(-127)
 227:quantum/rgblight.c ****     rgblight_config.mode = 1;
 1236               		.loc 1 227 6 is_stmt 0 view .LVU298
 1237 0016 8111      		cpse r24,__zero_reg__
 1238 0018 00C0      		rjmp .L49
 228:quantum/rgblight.c ****   } else if (mode > RGBLIGHT_MODES) {
 1239               		.loc 1 228 5 is_stmt 1 view .LVU299
 228:quantum/rgblight.c ****   } else if (mode > RGBLIGHT_MODES) {
 1240               		.loc 1 228 26 is_stmt 0 view .LVU300
 1241 001a 9260      		ori r25,lo8(2)
 1242               	.LVL74:
 1243               	.L54:
 232:quantum/rgblight.c ****   }
 1244               		.loc 1 232 26 view .LVU301
 1245 001c 9093 0000 		sts rgblight_config,r25
 234:quantum/rgblight.c ****   xprintf("rgblight mode: %u\n", rgblight_config.mode);
 1246               		.loc 1 234 3 is_stmt 1 view .LVU302
 1247 0020 8091 0000 		lds r24,rgblight_config
 1248 0024 9091 0000 		lds r25,rgblight_config+1
 1249 0028 A091 0000 		lds r26,rgblight_config+2
 1250 002c B091 0000 		lds r27,rgblight_config+3
 1251 0030 8983      		std Y+1,r24
 1252 0032 9A83      		std Y+2,r25
 1253 0034 AB83      		std Y+3,r26
 1254 0036 BC83      		std Y+4,r27
 1255 0038 BC01      		movw r22,r24
 1256 003a CD01      		movw r24,r26
 1257 003c 0E94 0000 		call eeconfig_update_rgblight
 1258               	.LVL75:
 235:quantum/rgblight.c ****   if (rgblight_config.mode == 1) {
 1259               		.loc 1 235 55 view .LVU303
 236:quantum/rgblight.c ****     #ifdef RGBLIGHT_ANIMATIONS
 1260               		.loc 1 236 3 view .LVU304
 236:quantum/rgblight.c ****     #ifdef RGBLIGHT_ANIMATIONS
 1261               		.loc 1 236 28 is_stmt 0 view .LVU305
 1262 0040 8091 0000 		lds r24,rgblight_config
 1263 0044 982F      		mov r25,r24
 1264 0046 9E77      		andi r25,lo8(126)
 236:quantum/rgblight.c ****     #ifdef RGBLIGHT_ANIMATIONS
 1265               		.loc 1 236 6 view .LVU306
 1266 0048 9230      		cpi r25,lo8(2)
 1267 004a 01F4      		brne .L52
 238:quantum/rgblight.c ****     #endif
 1268               		.loc 1 238 7 is_stmt 1 view .LVU307
 1269               	.LBB21:
 1270               	.LBI21:
 391:quantum/rgblight.c ****     #endif
 392:quantum/rgblight.c ****   }
 393:quantum/rgblight.c **** }
 394:quantum/rgblight.c **** 
 395:quantum/rgblight.c **** #ifdef RGBLIGHT_ANIMATIONS
 396:quantum/rgblight.c **** 
 397:quantum/rgblight.c **** // Animation timer -- AVR Timer3
 398:quantum/rgblight.c **** void rgblight_timer_init(void) {
 399:quantum/rgblight.c ****   // static uint8_t rgblight_timer_is_init = 0;
 400:quantum/rgblight.c ****   // if (rgblight_timer_is_init) {
 401:quantum/rgblight.c ****   //   return;
 402:quantum/rgblight.c ****   // }
 403:quantum/rgblight.c ****   // rgblight_timer_is_init = 1;
 404:quantum/rgblight.c ****   // /* Timer 3 setup */
 405:quantum/rgblight.c ****   // TCCR3B = _BV(WGM32) // CTC mode OCR3A as TOP
 406:quantum/rgblight.c ****   //       | _BV(CS30); // Clock selelct: clk/1
 407:quantum/rgblight.c ****   // /* Set TOP value */
 408:quantum/rgblight.c ****   // uint8_t sreg = SREG;
 409:quantum/rgblight.c ****   // cli();
 410:quantum/rgblight.c ****   // OCR3AH = (RGBLED_TIMER_TOP >> 8) & 0xff;
 411:quantum/rgblight.c ****   // OCR3AL = RGBLED_TIMER_TOP & 0xff;
 412:quantum/rgblight.c ****   // SREG = sreg;
 413:quantum/rgblight.c **** 
 414:quantum/rgblight.c ****   rgblight_timer_enabled = true;
 415:quantum/rgblight.c **** }
 416:quantum/rgblight.c **** void rgblight_timer_enable(void) {
 417:quantum/rgblight.c ****   rgblight_timer_enabled = true;
 418:quantum/rgblight.c ****   dprintf("TIMER3 enabled.\n");
 419:quantum/rgblight.c **** }
 420:quantum/rgblight.c **** void rgblight_timer_disable(void) {
 1271               		.loc 1 420 6 view .LVU308
 1272               	.LBB22:
 421:quantum/rgblight.c ****   rgblight_timer_enabled = false;
 1273               		.loc 1 421 3 view .LVU309
 1274               		.loc 1 421 26 is_stmt 0 view .LVU310
 1275 004c 1092 0000 		sts rgblight_timer_enabled,__zero_reg__
 422:quantum/rgblight.c ****   dprintf("TIMER3 disabled.\n");
 1276               		.loc 1 422 32 is_stmt 1 view .LVU311
 1277               	.L53:
 1278               	.LBE22:
 1279               	.LBE21:
 251:quantum/rgblight.c **** }
 1280               		.loc 1 251 3 view .LVU312
 251:quantum/rgblight.c **** }
 1281               		.loc 1 251 34 is_stmt 0 view .LVU313
 1282 0050 881F      		rol r24
 1283 0052 8827      		clr r24
 1284 0054 881F      		rol r24
 1285 0056 9091 0000 		lds r25,rgblight_config+1
 1286 005a 292F      		mov r18,r25
 1287 005c 220F      		lsl r18
 1288 005e 97FB      		bst r25,7
 1289 0060 9927      		clr r25
 1290 0062 90F9      		bld r25,0
 251:quantum/rgblight.c **** }
 1291               		.loc 1 251 3 view .LVU314
 1292 0064 4091 0000 		lds r20,rgblight_config+3
 1293 0068 6091 0000 		lds r22,rgblight_config+2
 1294 006c 822B      		or r24,r18
 1295               	/* epilogue start */
 252:quantum/rgblight.c **** 
 1296               		.loc 1 252 1 view .LVU315
 1297 006e 0F90      		pop __tmp_reg__
 1298 0070 0F90      		pop __tmp_reg__
 1299 0072 0F90      		pop __tmp_reg__
 1300 0074 0F90      		pop __tmp_reg__
 1301 0076 DF91      		pop r29
 1302 0078 CF91      		pop r28
 251:quantum/rgblight.c **** }
 1303               		.loc 1 251 3 view .LVU316
 1304 007a 0C94 0000 		jmp rgblight_sethsv
 1305               	.LVL76:
 1306               	.L49:
 229:quantum/rgblight.c ****     rgblight_config.mode = RGBLIGHT_MODES;
 1307               		.loc 1 229 10 is_stmt 1 view .LVU317
 229:quantum/rgblight.c ****     rgblight_config.mode = RGBLIGHT_MODES;
 1308               		.loc 1 229 13 is_stmt 0 view .LVU318
 1309 007e 8931      		cpi r24,lo8(25)
 1310 0080 00F0      		brlo .L51
 230:quantum/rgblight.c ****   } else {
 1311               		.loc 1 230 5 is_stmt 1 view .LVU319
 230:quantum/rgblight.c ****   } else {
 1312               		.loc 1 230 26 is_stmt 0 view .LVU320
 1313 0082 9063      		ori r25,lo8(48)
 1314 0084 00C0      		rjmp .L54
 1315               	.L51:
 232:quantum/rgblight.c ****   }
 1316               		.loc 1 232 5 is_stmt 1 view .LVU321
 232:quantum/rgblight.c ****   }
 1317               		.loc 1 232 26 is_stmt 0 view .LVU322
 1318 0086 8F73      		andi r24,lo8(63)
 1319               	.LVL77:
 232:quantum/rgblight.c ****   }
 1320               		.loc 1 232 26 view .LVU323
 1321 0088 880F      		lsl r24
 1322 008a 982B      		or r25,r24
 1323 008c 00C0      		rjmp .L54
 1324               	.L52:
 240:quantum/rgblight.c ****     // MODE 2-5, breathing
 1325               		.loc 1 240 10 is_stmt 1 view .LVU324
 240:quantum/rgblight.c ****     // MODE 2-5, breathing
 1326               		.loc 1 240 29 is_stmt 0 view .LVU325
 1327 008e 982F      		mov r25,r24
 1328 0090 9695      		lsr r25
 240:quantum/rgblight.c ****     // MODE 2-5, breathing
 1329               		.loc 1 240 40 view .LVU326
 1330 0092 925C      		subi r25,lo8(-(62))
 1331 0094 9F73      		andi r25,lo8(63)
 240:quantum/rgblight.c ****     // MODE 2-5, breathing
 1332               		.loc 1 240 13 view .LVU327
 1333 0096 9631      		cpi r25,lo8(22)
 1334 0098 00F4      		brsh .L53
 248:quantum/rgblight.c ****     #endif
 1335               		.loc 1 248 7 is_stmt 1 view .LVU328
 1336               	.LBB23:
 1337               	.LBI23:
 398:quantum/rgblight.c ****   // static uint8_t rgblight_timer_is_init = 0;
 1338               		.loc 1 398 6 view .LVU329
 1339               	.LBB24:
 414:quantum/rgblight.c **** }
 1340               		.loc 1 414 3 view .LVU330
 414:quantum/rgblight.c **** }
 1341               		.loc 1 414 26 is_stmt 0 view .LVU331
 1342 009a 91E0      		ldi r25,lo8(1)
 1343 009c 9093 0000 		sts rgblight_timer_enabled,r25
 415:quantum/rgblight.c **** void rgblight_timer_enable(void) {
 1344               		.loc 1 415 1 view .LVU332
 1345 00a0 00C0      		rjmp .L53
 1346               	.LVL78:
 1347               	.L47:
 1348               	/* epilogue start */
 415:quantum/rgblight.c **** void rgblight_timer_enable(void) {
 1349               		.loc 1 415 1 view .LVU333
 1350               	.LBE24:
 1351               	.LBE23:
 252:quantum/rgblight.c **** 
 1352               		.loc 1 252 1 view .LVU334
 1353 00a2 0F90      		pop __tmp_reg__
 1354 00a4 0F90      		pop __tmp_reg__
 1355 00a6 0F90      		pop __tmp_reg__
 1356 00a8 0F90      		pop __tmp_reg__
 1357 00aa DF91      		pop r29
 1358 00ac CF91      		pop r28
 1359 00ae 0895      		ret
 1360               		.cfi_endproc
 1361               	.LFE18:
 1363               		.section	.text.rgblight_init,"ax",@progbits
 1364               	.global	rgblight_init
 1366               	rgblight_init:
 1367               	.LFB13:
 159:quantum/rgblight.c ****   debug_enable = 1; // Debug ON!
 1368               		.loc 1 159 26 is_stmt 1 view -0
 1369               		.cfi_startproc
 1370               	/* prologue: function */
 1371               	/* frame size = 0 */
 1372               	/* stack size = 0 */
 1373               	.L__stack_usage = 0
 160:quantum/rgblight.c ****   dprintf("rgblight_init called.\n");
 1374               		.loc 1 160 3 view .LVU336
 160:quantum/rgblight.c ****   dprintf("rgblight_init called.\n");
 1375               		.loc 1 160 16 is_stmt 0 view .LVU337
 1376 0000 8091 0000 		lds r24,debug_config
 1377 0004 8160      		ori r24,lo8(1<<0)
 1378 0006 8093 0000 		sts debug_config,r24
 161:quantum/rgblight.c ****   rgblight_inited = 1;
 1379               		.loc 1 161 37 is_stmt 1 view .LVU338
 162:quantum/rgblight.c ****   dprintf("rgblight_init start!\n");
 1380               		.loc 1 162 3 view .LVU339
 162:quantum/rgblight.c ****   dprintf("rgblight_init start!\n");
 1381               		.loc 1 162 19 is_stmt 0 view .LVU340
 1382 000a 81E0      		ldi r24,lo8(1)
 1383 000c 8093 0000 		sts rgblight_inited,r24
 163:quantum/rgblight.c ****   if (!eeconfig_is_enabled()) {
 1384               		.loc 1 163 36 is_stmt 1 view .LVU341
 164:quantum/rgblight.c ****     dprintf("rgblight_init eeconfig is not enabled.\n");
 1385               		.loc 1 164 3 view .LVU342
 164:quantum/rgblight.c ****     dprintf("rgblight_init eeconfig is not enabled.\n");
 1386               		.loc 1 164 8 is_stmt 0 view .LVU343
 1387 0010 0E94 0000 		call eeconfig_is_enabled
 1388               	.LVL79:
 164:quantum/rgblight.c ****     dprintf("rgblight_init eeconfig is not enabled.\n");
 1389               		.loc 1 164 6 view .LVU344
 1390 0014 8111      		cpse r24,__zero_reg__
 1391 0016 00C0      		rjmp .L56
 165:quantum/rgblight.c ****     eeconfig_init();
 1392               		.loc 1 165 56 is_stmt 1 view .LVU345
 166:quantum/rgblight.c ****     eeconfig_update_rgblight_default();
 1393               		.loc 1 166 5 view .LVU346
 1394 0018 0E94 0000 		call eeconfig_init
 1395               	.LVL80:
 167:quantum/rgblight.c ****   }
 1396               		.loc 1 167 5 view .LVU347
 1397 001c 0E94 0000 		call eeconfig_update_rgblight_default
 1398               	.LVL81:
 1399               	.L56:
 169:quantum/rgblight.c ****   if (!rgblight_config.mode) {
 1400               		.loc 1 169 3 view .LVU348
 169:quantum/rgblight.c ****   if (!rgblight_config.mode) {
 1401               		.loc 1 169 25 is_stmt 0 view .LVU349
 1402 0020 0E94 0000 		call eeconfig_read_rgblight
 1403               	.LVL82:
 169:quantum/rgblight.c ****   if (!rgblight_config.mode) {
 1404               		.loc 1 169 23 view .LVU350
 1405 0024 6093 0000 		sts rgblight_config,r22
 1406 0028 7093 0000 		sts rgblight_config+1,r23
 1407 002c 8093 0000 		sts rgblight_config+2,r24
 1408 0030 9093 0000 		sts rgblight_config+3,r25
 170:quantum/rgblight.c ****     dprintf("rgblight_init rgblight_config.mode = 0. Write default values to EEPROM.\n");
 1409               		.loc 1 170 3 is_stmt 1 view .LVU351
 170:quantum/rgblight.c ****     dprintf("rgblight_init rgblight_config.mode = 0. Write default values to EEPROM.\n");
 1410               		.loc 1 170 7 is_stmt 0 view .LVU352
 1411 0034 6E77      		andi r22,lo8(126)
 170:quantum/rgblight.c ****     dprintf("rgblight_init rgblight_config.mode = 0. Write default values to EEPROM.\n");
 1412               		.loc 1 170 6 view .LVU353
 1413 0036 01F4      		brne .L57
 171:quantum/rgblight.c ****     eeconfig_update_rgblight_default();
 1414               		.loc 1 171 89 is_stmt 1 view .LVU354
 172:quantum/rgblight.c ****     rgblight_config.raw = eeconfig_read_rgblight();
 1415               		.loc 1 172 5 view .LVU355
 1416 0038 0E94 0000 		call eeconfig_update_rgblight_default
 1417               	.LVL83:
 173:quantum/rgblight.c ****   }
 1418               		.loc 1 173 5 view .LVU356
 173:quantum/rgblight.c ****   }
 1419               		.loc 1 173 27 is_stmt 0 view .LVU357
 1420 003c 0E94 0000 		call eeconfig_read_rgblight
 1421               	.LVL84:
 1422 0040 6093 0000 		sts rgblight_config,r22
 1423 0044 7093 0000 		sts rgblight_config+1,r23
 1424 0048 8093 0000 		sts rgblight_config+2,r24
 1425 004c 9093 0000 		sts rgblight_config+3,r25
 1426               	.L57:
 175:quantum/rgblight.c **** 
 1427               		.loc 1 175 3 is_stmt 1 view .LVU358
 178:quantum/rgblight.c ****   #endif
 1428               		.loc 1 178 5 view .LVU359
 1429               	.LBB27:
 1430               	.LBI27:
 398:quantum/rgblight.c ****   // static uint8_t rgblight_timer_is_init = 0;
 1431               		.loc 1 398 6 view .LVU360
 1432               	.LBB28:
 414:quantum/rgblight.c **** }
 1433               		.loc 1 414 3 view .LVU361
 414:quantum/rgblight.c **** }
 1434               		.loc 1 414 26 is_stmt 0 view .LVU362
 1435 0050 81E0      		ldi r24,lo8(1)
 1436 0052 8093 0000 		sts rgblight_timer_enabled,r24
 1437               	.LBE28:
 1438               	.LBE27:
 181:quantum/rgblight.c ****     rgblight_mode(rgblight_config.mode);
 1439               		.loc 1 181 3 is_stmt 1 view .LVU363
 181:quantum/rgblight.c ****     rgblight_mode(rgblight_config.mode);
 1440               		.loc 1 181 7 is_stmt 0 view .LVU364
 1441 0056 8091 0000 		lds r24,rgblight_config
 181:quantum/rgblight.c ****     rgblight_mode(rgblight_config.mode);
 1442               		.loc 1 181 6 view .LVU365
 1443 005a 80FF      		sbrs r24,0
 1444 005c 00C0      		rjmp .L55
 182:quantum/rgblight.c ****   }
 1445               		.loc 1 182 5 is_stmt 1 view .LVU366
 182:quantum/rgblight.c ****   }
 1446               		.loc 1 182 34 is_stmt 0 view .LVU367
 1447 005e 8695      		lsr r24
 182:quantum/rgblight.c ****   }
 1448               		.loc 1 182 5 view .LVU368
 1449 0060 8F73      		andi r24,lo8(63)
 1450 0062 0C94 0000 		jmp rgblight_mode
 1451               	.LVL85:
 1452               	.L55:
 1453               	/* epilogue start */
 184:quantum/rgblight.c **** 
 1454               		.loc 1 184 1 view .LVU369
 1455 0066 0895      		ret
 1456               		.cfi_endproc
 1457               	.LFE13:
 1459               		.section	.text.rgblight_increase,"ax",@progbits
 1460               	.global	rgblight_increase
 1462               	rgblight_increase:
 1463               	.LFB15:
 199:quantum/rgblight.c ****   uint8_t mode = 0;
 1464               		.loc 1 199 30 is_stmt 1 view -0
 1465               		.cfi_startproc
 1466               	/* prologue: function */
 1467               	/* frame size = 0 */
 1468               	/* stack size = 0 */
 1469               	.L__stack_usage = 0
 200:quantum/rgblight.c ****   if (rgblight_config.mode < RGBLIGHT_MODES) {
 1470               		.loc 1 200 3 view .LVU371
 1471               	.LVL86:
 201:quantum/rgblight.c ****     mode = rgblight_config.mode + 1;
 1472               		.loc 1 201 3 view .LVU372
 201:quantum/rgblight.c ****     mode = rgblight_config.mode + 1;
 1473               		.loc 1 201 22 is_stmt 0 view .LVU373
 1474 0000 8091 0000 		lds r24,rgblight_config
 1475 0004 8695      		lsr r24
 1476 0006 8F73      		andi r24,lo8(63)
 201:quantum/rgblight.c ****     mode = rgblight_config.mode + 1;
 1477               		.loc 1 201 6 view .LVU374
 1478 0008 8831      		cpi r24,lo8(24)
 1479 000a 00F4      		brsh .L61
 202:quantum/rgblight.c ****   }
 1480               		.loc 1 202 5 is_stmt 1 view .LVU375
 202:quantum/rgblight.c ****   }
 1481               		.loc 1 202 10 is_stmt 0 view .LVU376
 1482 000c 8F5F      		subi r24,lo8(-(1))
 1483               	.LVL87:
 1484               	.L60:
 204:quantum/rgblight.c **** }
 1485               		.loc 1 204 3 is_stmt 1 view .LVU377
 1486 000e 0C94 0000 		jmp rgblight_mode
 1487               	.LVL88:
 1488               	.L61:
 200:quantum/rgblight.c ****   if (rgblight_config.mode < RGBLIGHT_MODES) {
 1489               		.loc 1 200 11 is_stmt 0 view .LVU378
 1490 0012 80E0      		ldi r24,0
 1491 0014 00C0      		rjmp .L60
 1492               		.cfi_endproc
 1493               	.LFE15:
 1495               		.section	.text.rgblight_decrease,"ax",@progbits
 1496               	.global	rgblight_decrease
 1498               	rgblight_decrease:
 1499               	.LFB16:
 206:quantum/rgblight.c ****   uint8_t mode = 0;
 1500               		.loc 1 206 30 is_stmt 1 view -0
 1501               		.cfi_startproc
 1502               	/* prologue: function */
 1503               	/* frame size = 0 */
 1504               	/* stack size = 0 */
 1505               	.L__stack_usage = 0
 207:quantum/rgblight.c ****   // Mode will never be < 1. If it ever is, eeprom needs to be initialized.
 1506               		.loc 1 207 3 view .LVU380
 1507               	.LVL89:
 209:quantum/rgblight.c ****     mode = rgblight_config.mode - 1;
 1508               		.loc 1 209 3 view .LVU381
 209:quantum/rgblight.c ****     mode = rgblight_config.mode - 1;
 1509               		.loc 1 209 22 is_stmt 0 view .LVU382
 1510 0000 8091 0000 		lds r24,rgblight_config
 1511 0004 8695      		lsr r24
 1512 0006 8F73      		andi r24,lo8(63)
 209:quantum/rgblight.c ****     mode = rgblight_config.mode - 1;
 1513               		.loc 1 209 6 view .LVU383
 1514 0008 8230      		cpi r24,lo8(2)
 1515 000a 00F0      		brlo .L64
 210:quantum/rgblight.c ****   }
 1516               		.loc 1 210 5 is_stmt 1 view .LVU384
 210:quantum/rgblight.c ****   }
 1517               		.loc 1 210 10 is_stmt 0 view .LVU385
 1518 000c 8150      		subi r24,lo8(-(-1))
 1519               	.LVL90:
 1520               	.L63:
 212:quantum/rgblight.c **** }
 1521               		.loc 1 212 3 is_stmt 1 view .LVU386
 1522 000e 0C94 0000 		jmp rgblight_mode
 1523               	.LVL91:
 1524               	.L64:
 207:quantum/rgblight.c ****   // Mode will never be < 1. If it ever is, eeprom needs to be initialized.
 1525               		.loc 1 207 11 is_stmt 0 view .LVU387
 1526 0012 80E0      		ldi r24,0
 1527 0014 00C0      		rjmp .L63
 1528               		.cfi_endproc
 1529               	.LFE16:
 1531               		.section	.text.rgblight_step,"ax",@progbits
 1532               	.global	rgblight_step
 1534               	rgblight_step:
 1535               	.LFB17:
 214:quantum/rgblight.c ****   uint8_t mode = 0;
 1536               		.loc 1 214 26 is_stmt 1 view -0
 1537               		.cfi_startproc
 1538               	/* prologue: function */
 1539               	/* frame size = 0 */
 1540               	/* stack size = 0 */
 1541               	.L__stack_usage = 0
 215:quantum/rgblight.c ****   mode = rgblight_config.mode + 1;
 1542               		.loc 1 215 3 view .LVU389
 1543               	.LVL92:
 216:quantum/rgblight.c ****   if (mode > RGBLIGHT_MODES) {
 1544               		.loc 1 216 3 view .LVU390
 216:quantum/rgblight.c ****   if (mode > RGBLIGHT_MODES) {
 1545               		.loc 1 216 25 is_stmt 0 view .LVU391
 1546 0000 8091 0000 		lds r24,rgblight_config
 1547 0004 8695      		lsr r24
 1548 0006 8F73      		andi r24,lo8(63)
 216:quantum/rgblight.c ****   if (mode > RGBLIGHT_MODES) {
 1549               		.loc 1 216 8 view .LVU392
 1550 0008 8F5F      		subi r24,lo8(-(1))
 1551               	.LVL93:
 217:quantum/rgblight.c ****     mode = 1;
 1552               		.loc 1 217 3 is_stmt 1 view .LVU393
 217:quantum/rgblight.c ****     mode = 1;
 1553               		.loc 1 217 6 is_stmt 0 view .LVU394
 1554 000a 8931      		cpi r24,lo8(25)
 1555 000c 00F0      		brlo .L66
 218:quantum/rgblight.c ****   }
 1556               		.loc 1 218 10 view .LVU395
 1557 000e 81E0      		ldi r24,lo8(1)
 1558               	.LVL94:
 1559               	.L66:
 220:quantum/rgblight.c **** }
 1560               		.loc 1 220 3 is_stmt 1 view .LVU396
 1561 0010 0C94 0000 		jmp rgblight_mode
 1562               	.LVL95:
 220:quantum/rgblight.c **** }
 1563               		.loc 1 220 3 is_stmt 0 view .LVU397
 1564               		.cfi_endproc
 1565               	.LFE17:
 1567               		.section	.text.rgblight_enable,"ax",@progbits
 1568               	.global	rgblight_enable
 1570               	rgblight_enable:
 1571               	.LFB20:
 269:quantum/rgblight.c ****   rgblight_config.enable = 1;
 1572               		.loc 1 269 28 is_stmt 1 view -0
 1573               		.cfi_startproc
 1574 0000 CF93      		push r28
 1575               	.LCFI32:
 1576               		.cfi_def_cfa_offset 3
 1577               		.cfi_offset 28, -2
 1578 0002 DF93      		push r29
 1579               	.LCFI33:
 1580               		.cfi_def_cfa_offset 4
 1581               		.cfi_offset 29, -3
 1582 0004 00D0      		rcall .
 1583 0006 00D0      		rcall .
 1584               	.LCFI34:
 1585               		.cfi_def_cfa_offset 8
 1586 0008 CDB7      		in r28,__SP_L__
 1587 000a DEB7      		in r29,__SP_H__
 1588               	.LCFI35:
 1589               		.cfi_def_cfa_register 28
 1590               	/* prologue: function */
 1591               	/* frame size = 4 */
 1592               	/* stack size = 6 */
 1593               	.L__stack_usage = 6
 270:quantum/rgblight.c ****   eeconfig_update_rgblight(rgblight_config.raw);
 1594               		.loc 1 270 3 view .LVU399
 270:quantum/rgblight.c ****   eeconfig_update_rgblight(rgblight_config.raw);
 1595               		.loc 1 270 26 is_stmt 0 view .LVU400
 1596 000c A0E0      		ldi r26,lo8(rgblight_config)
 1597 000e B0E0      		ldi r27,hi8(rgblight_config)
 1598 0010 8C91      		ld r24,X
 1599 0012 8160      		ori r24,lo8(1<<0)
 1600 0014 8C93      		st X,r24
 271:quantum/rgblight.c ****   xprintf("rgblight enable: rgblight_config.enable = %u\n", rgblight_config.enable);
 1601               		.loc 1 271 3 is_stmt 1 view .LVU401
 1602 0016 8091 0000 		lds r24,rgblight_config
 1603 001a 9091 0000 		lds r25,rgblight_config+1
 1604 001e A091 0000 		lds r26,rgblight_config+2
 1605 0022 B091 0000 		lds r27,rgblight_config+3
 1606 0026 8983      		std Y+1,r24
 1607 0028 9A83      		std Y+2,r25
 1608 002a AB83      		std Y+3,r26
 1609 002c BC83      		std Y+4,r27
 1610 002e BC01      		movw r22,r24
 1611 0030 CD01      		movw r24,r26
 1612 0032 0E94 0000 		call eeconfig_update_rgblight
 1613               	.LVL96:
 272:quantum/rgblight.c ****   rgblight_mode(rgblight_config.mode);
 1614               		.loc 1 272 84 view .LVU402
 273:quantum/rgblight.c **** }
 1615               		.loc 1 273 3 view .LVU403
 273:quantum/rgblight.c **** }
 1616               		.loc 1 273 32 is_stmt 0 view .LVU404
 1617 0036 A0E0      		ldi r26,lo8(rgblight_config)
 1618 0038 B0E0      		ldi r27,hi8(rgblight_config)
 1619 003a 8C91      		ld r24,X
 1620 003c 8695      		lsr r24
 273:quantum/rgblight.c **** }
 1621               		.loc 1 273 3 view .LVU405
 1622 003e 8F73      		andi r24,lo8(63)
 1623               	/* epilogue start */
 274:quantum/rgblight.c **** 
 1624               		.loc 1 274 1 view .LVU406
 1625 0040 0F90      		pop __tmp_reg__
 1626 0042 0F90      		pop __tmp_reg__
 1627 0044 0F90      		pop __tmp_reg__
 1628 0046 0F90      		pop __tmp_reg__
 1629 0048 DF91      		pop r29
 1630 004a CF91      		pop r28
 273:quantum/rgblight.c **** }
 1631               		.loc 1 273 3 view .LVU407
 1632 004c 0C94 0000 		jmp rgblight_mode
 1633               	.LVL97:
 1634               		.cfi_endproc
 1635               	.LFE20:
 1637               		.section	.text.rgblight_update_dword,"ax",@progbits
 1638               	.global	rgblight_update_dword
 1640               	rgblight_update_dword:
 1641               	.LVL98:
 1642               	.LFB14:
 186:quantum/rgblight.c ****   rgblight_config.raw = dword;
 1643               		.loc 1 186 44 is_stmt 1 view -0
 1644               		.cfi_startproc
 1645               	/* prologue: function */
 1646               	/* frame size = 0 */
 1647               	/* stack size = 0 */
 1648               	.L__stack_usage = 0
 187:quantum/rgblight.c ****   eeconfig_update_rgblight(rgblight_config.raw);
 1649               		.loc 1 187 3 view .LVU409
 187:quantum/rgblight.c ****   eeconfig_update_rgblight(rgblight_config.raw);
 1650               		.loc 1 187 23 is_stmt 0 view .LVU410
 1651 0000 6093 0000 		sts rgblight_config,r22
 1652 0004 7093 0000 		sts rgblight_config+1,r23
 1653 0008 8093 0000 		sts rgblight_config+2,r24
 1654 000c 9093 0000 		sts rgblight_config+3,r25
 188:quantum/rgblight.c ****   if (rgblight_config.enable)
 1655               		.loc 1 188 3 is_stmt 1 view .LVU411
 1656 0010 0E94 0000 		call eeconfig_update_rgblight
 1657               	.LVL99:
 189:quantum/rgblight.c ****     rgblight_mode(rgblight_config.mode);
 1658               		.loc 1 189 3 view .LVU412
 189:quantum/rgblight.c ****     rgblight_mode(rgblight_config.mode);
 1659               		.loc 1 189 7 is_stmt 0 view .LVU413
 1660 0014 8091 0000 		lds r24,rgblight_config
 189:quantum/rgblight.c ****     rgblight_mode(rgblight_config.mode);
 1661               		.loc 1 189 6 view .LVU414
 1662 0018 80FF      		sbrs r24,0
 1663 001a 00C0      		rjmp .L69
 190:quantum/rgblight.c ****   else {
 1664               		.loc 1 190 5 is_stmt 1 view .LVU415
 190:quantum/rgblight.c ****   else {
 1665               		.loc 1 190 34 is_stmt 0 view .LVU416
 1666 001c 8695      		lsr r24
 190:quantum/rgblight.c ****   else {
 1667               		.loc 1 190 5 view .LVU417
 1668 001e 8F73      		andi r24,lo8(63)
 1669 0020 0C94 0000 		jmp rgblight_mode
 1670               	.LVL100:
 1671               	.L69:
 193:quantum/rgblight.c ****     #endif
 1672               		.loc 1 193 7 is_stmt 1 view .LVU418
 1673               	.LBB31:
 1674               	.LBI31:
 420:quantum/rgblight.c ****   rgblight_timer_enabled = false;
 1675               		.loc 1 420 6 view .LVU419
 1676               	.LBB32:
 421:quantum/rgblight.c ****   dprintf("TIMER3 disabled.\n");
 1677               		.loc 1 421 3 view .LVU420
 421:quantum/rgblight.c ****   dprintf("TIMER3 disabled.\n");
 1678               		.loc 1 421 26 is_stmt 0 view .LVU421
 1679 0024 1092 0000 		sts rgblight_timer_enabled,__zero_reg__
 1680               		.loc 1 422 32 is_stmt 1 view .LVU422
 1681               	.LBE32:
 1682               	.LBE31:
 195:quantum/rgblight.c ****   }
 1683               		.loc 1 195 7 view .LVU423
 1684 0028 0C94 0000 		jmp rgblight_set
 1685               	.LVL101:
 1686               		.cfi_endproc
 1687               	.LFE14:
 1689               		.section	.text.rgblight_toggle,"ax",@progbits
 1690               	.global	rgblight_toggle
 1692               	rgblight_toggle:
 1693               	.LFB19:
 254:quantum/rgblight.c ****   rgblight_config.enable ^= 1;
 1694               		.loc 1 254 28 view -0
 1695               		.cfi_startproc
 1696 0000 CF93      		push r28
 1697               	.LCFI36:
 1698               		.cfi_def_cfa_offset 3
 1699               		.cfi_offset 28, -2
 1700 0002 DF93      		push r29
 1701               	.LCFI37:
 1702               		.cfi_def_cfa_offset 4
 1703               		.cfi_offset 29, -3
 1704 0004 00D0      		rcall .
 1705 0006 00D0      		rcall .
 1706               	.LCFI38:
 1707               		.cfi_def_cfa_offset 8
 1708 0008 CDB7      		in r28,__SP_L__
 1709 000a DEB7      		in r29,__SP_H__
 1710               	.LCFI39:
 1711               		.cfi_def_cfa_register 28
 1712               	/* prologue: function */
 1713               	/* frame size = 4 */
 1714               	/* stack size = 6 */
 1715               	.L__stack_usage = 6
 255:quantum/rgblight.c ****   eeconfig_update_rgblight(rgblight_config.raw);
 1716               		.loc 1 255 3 view .LVU425
 255:quantum/rgblight.c ****   eeconfig_update_rgblight(rgblight_config.raw);
 1717               		.loc 1 255 26 is_stmt 0 view .LVU426
 1718 000c 9091 0000 		lds r25,rgblight_config
 1719 0010 892F      		mov r24,r25
 1720 0012 8E7F      		andi r24,~(1<<0)
 1721 0014 90FF      		sbrs r25,0
 1722 0016 8160      		ori r24,1<<0
 1723 0018 8093 0000 		sts rgblight_config,r24
 256:quantum/rgblight.c ****   xprintf("rgblight toggle: rgblight_config.enable = %u\n", rgblight_config.enable);
 1724               		.loc 1 256 3 is_stmt 1 view .LVU427
 1725 001c 8091 0000 		lds r24,rgblight_config
 1726 0020 9091 0000 		lds r25,rgblight_config+1
 1727 0024 A091 0000 		lds r26,rgblight_config+2
 1728 0028 B091 0000 		lds r27,rgblight_config+3
 1729 002c 8983      		std Y+1,r24
 1730 002e 9A83      		std Y+2,r25
 1731 0030 AB83      		std Y+3,r26
 1732 0032 BC83      		std Y+4,r27
 1733 0034 BC01      		movw r22,r24
 1734 0036 CD01      		movw r24,r26
 1735 0038 0E94 0000 		call eeconfig_update_rgblight
 1736               	.LVL102:
 257:quantum/rgblight.c ****   if (rgblight_config.enable) {
 1737               		.loc 1 257 84 view .LVU428
 258:quantum/rgblight.c ****     rgblight_mode(rgblight_config.mode);
 1738               		.loc 1 258 3 view .LVU429
 258:quantum/rgblight.c ****     rgblight_mode(rgblight_config.mode);
 1739               		.loc 1 258 7 is_stmt 0 view .LVU430
 1740 003c 8091 0000 		lds r24,rgblight_config
 258:quantum/rgblight.c ****     rgblight_mode(rgblight_config.mode);
 1741               		.loc 1 258 6 view .LVU431
 1742 0040 80FF      		sbrs r24,0
 1743 0042 00C0      		rjmp .L71
 259:quantum/rgblight.c ****   } else {
 1744               		.loc 1 259 5 is_stmt 1 view .LVU432
 259:quantum/rgblight.c ****   } else {
 1745               		.loc 1 259 34 is_stmt 0 view .LVU433
 1746 0044 8695      		lsr r24
 259:quantum/rgblight.c ****   } else {
 1747               		.loc 1 259 5 view .LVU434
 1748 0046 8F73      		andi r24,lo8(63)
 1749               	/* epilogue start */
 267:quantum/rgblight.c **** 
 1750               		.loc 1 267 1 view .LVU435
 1751 0048 0F90      		pop __tmp_reg__
 1752 004a 0F90      		pop __tmp_reg__
 1753 004c 0F90      		pop __tmp_reg__
 1754 004e 0F90      		pop __tmp_reg__
 1755 0050 DF91      		pop r29
 1756 0052 CF91      		pop r28
 259:quantum/rgblight.c ****   } else {
 1757               		.loc 1 259 5 view .LVU436
 1758 0054 0C94 0000 		jmp rgblight_mode
 1759               	.LVL103:
 1760               	.L71:
 262:quantum/rgblight.c ****     #endif
 1761               		.loc 1 262 7 is_stmt 1 view .LVU437
 1762               	.LBB37:
 1763               	.LBI37:
 420:quantum/rgblight.c ****   rgblight_timer_enabled = false;
 1764               		.loc 1 420 6 view .LVU438
 1765               	.LBB38:
 421:quantum/rgblight.c ****   dprintf("TIMER3 disabled.\n");
 1766               		.loc 1 421 3 view .LVU439
 421:quantum/rgblight.c ****   dprintf("TIMER3 disabled.\n");
 1767               		.loc 1 421 26 is_stmt 0 view .LVU440
 1768 0058 1092 0000 		sts rgblight_timer_enabled,__zero_reg__
 1769               		.loc 1 422 32 is_stmt 1 view .LVU441
 1770               	.LBE38:
 1771               	.LBE37:
 264:quantum/rgblight.c ****     rgblight_set();
 1772               		.loc 1 264 5 view .LVU442
 1773               	.LVL104:
 1774               	.LBB39:
 1775               	.LBI39:
 1776               		.file 2 "/opt/homebrew/Cellar/avr-gcc@9/9.3.0_3/avr/include/util/delay.h"
   1:/opt/homebrew/Cellar/avr-gcc@9/9.3.0_3/avr/include/util/delay.h **** /* Copyright (c) 2002, Marek Michalkiewicz
   2:/opt/homebrew/Cellar/avr-gcc@9/9.3.0_3/avr/include/util/delay.h ****    Copyright (c) 2004,2005,2007 Joerg Wunsch
   3:/opt/homebrew/Cellar/avr-gcc@9/9.3.0_3/avr/include/util/delay.h ****    Copyright (c) 2007  Florin-Viorel Petrov
   4:/opt/homebrew/Cellar/avr-gcc@9/9.3.0_3/avr/include/util/delay.h ****    All rights reserved.
   5:/opt/homebrew/Cellar/avr-gcc@9/9.3.0_3/avr/include/util/delay.h **** 
   6:/opt/homebrew/Cellar/avr-gcc@9/9.3.0_3/avr/include/util/delay.h ****    Redistribution and use in source and binary forms, with or without
   7:/opt/homebrew/Cellar/avr-gcc@9/9.3.0_3/avr/include/util/delay.h ****    modification, are permitted provided that the following conditions are met:
   8:/opt/homebrew/Cellar/avr-gcc@9/9.3.0_3/avr/include/util/delay.h **** 
   9:/opt/homebrew/Cellar/avr-gcc@9/9.3.0_3/avr/include/util/delay.h ****    * Redistributions of source code must retain the above copyright
  10:/opt/homebrew/Cellar/avr-gcc@9/9.3.0_3/avr/include/util/delay.h ****      notice, this list of conditions and the following disclaimer.
  11:/opt/homebrew/Cellar/avr-gcc@9/9.3.0_3/avr/include/util/delay.h **** 
  12:/opt/homebrew/Cellar/avr-gcc@9/9.3.0_3/avr/include/util/delay.h ****    * Redistributions in binary form must reproduce the above copyright
  13:/opt/homebrew/Cellar/avr-gcc@9/9.3.0_3/avr/include/util/delay.h ****      notice, this list of conditions and the following disclaimer in
  14:/opt/homebrew/Cellar/avr-gcc@9/9.3.0_3/avr/include/util/delay.h ****      the documentation and/or other materials provided with the
  15:/opt/homebrew/Cellar/avr-gcc@9/9.3.0_3/avr/include/util/delay.h ****      distribution.
  16:/opt/homebrew/Cellar/avr-gcc@9/9.3.0_3/avr/include/util/delay.h **** 
  17:/opt/homebrew/Cellar/avr-gcc@9/9.3.0_3/avr/include/util/delay.h ****    * Neither the name of the copyright holders nor the names of
  18:/opt/homebrew/Cellar/avr-gcc@9/9.3.0_3/avr/include/util/delay.h ****      contributors may be used to endorse or promote products derived
  19:/opt/homebrew/Cellar/avr-gcc@9/9.3.0_3/avr/include/util/delay.h ****      from this software without specific prior written permission.
  20:/opt/homebrew/Cellar/avr-gcc@9/9.3.0_3/avr/include/util/delay.h **** 
  21:/opt/homebrew/Cellar/avr-gcc@9/9.3.0_3/avr/include/util/delay.h ****   THIS SOFTWARE IS PROVIDED BY THE COPYRIGHT HOLDERS AND CONTRIBUTORS "AS IS"
  22:/opt/homebrew/Cellar/avr-gcc@9/9.3.0_3/avr/include/util/delay.h ****   AND ANY EXPRESS OR IMPLIED WARRANTIES, INCLUDING, BUT NOT LIMITED TO, THE
  23:/opt/homebrew/Cellar/avr-gcc@9/9.3.0_3/avr/include/util/delay.h ****   IMPLIED WARRANTIES OF MERCHANTABILITY AND FITNESS FOR A PARTICULAR PURPOSE
  24:/opt/homebrew/Cellar/avr-gcc@9/9.3.0_3/avr/include/util/delay.h ****   ARE DISCLAIMED. IN NO EVENT SHALL THE COPYRIGHT OWNER OR CONTRIBUTORS BE
  25:/opt/homebrew/Cellar/avr-gcc@9/9.3.0_3/avr/include/util/delay.h ****   LIABLE FOR ANY DIRECT, INDIRECT, INCIDENTAL, SPECIAL, EXEMPLARY, OR
  26:/opt/homebrew/Cellar/avr-gcc@9/9.3.0_3/avr/include/util/delay.h ****   CONSEQUENTIAL DAMAGES (INCLUDING, BUT NOT LIMITED TO, PROCUREMENT OF
  27:/opt/homebrew/Cellar/avr-gcc@9/9.3.0_3/avr/include/util/delay.h ****   SUBSTITUTE GOODS OR SERVICES; LOSS OF USE, DATA, OR PROFITS; OR BUSINESS
  28:/opt/homebrew/Cellar/avr-gcc@9/9.3.0_3/avr/include/util/delay.h ****   INTERRUPTION) HOWEVER CAUSED AND ON ANY THEORY OF LIABILITY, WHETHER IN
  29:/opt/homebrew/Cellar/avr-gcc@9/9.3.0_3/avr/include/util/delay.h ****   CONTRACT, STRICT LIABILITY, OR TORT (INCLUDING NEGLIGENCE OR OTHERWISE)
  30:/opt/homebrew/Cellar/avr-gcc@9/9.3.0_3/avr/include/util/delay.h ****   ARISING IN ANY WAY OUT OF THE USE OF THIS SOFTWARE, EVEN IF ADVISED OF THE
  31:/opt/homebrew/Cellar/avr-gcc@9/9.3.0_3/avr/include/util/delay.h ****   POSSIBILITY OF SUCH DAMAGE. */
  32:/opt/homebrew/Cellar/avr-gcc@9/9.3.0_3/avr/include/util/delay.h **** 
  33:/opt/homebrew/Cellar/avr-gcc@9/9.3.0_3/avr/include/util/delay.h **** /* $Id: delay.h.in 2506 2016-02-08 10:05:45Z joerg_wunsch $ */
  34:/opt/homebrew/Cellar/avr-gcc@9/9.3.0_3/avr/include/util/delay.h **** 
  35:/opt/homebrew/Cellar/avr-gcc@9/9.3.0_3/avr/include/util/delay.h **** #ifndef _UTIL_DELAY_H_
  36:/opt/homebrew/Cellar/avr-gcc@9/9.3.0_3/avr/include/util/delay.h **** #define _UTIL_DELAY_H_ 1
  37:/opt/homebrew/Cellar/avr-gcc@9/9.3.0_3/avr/include/util/delay.h **** 
  38:/opt/homebrew/Cellar/avr-gcc@9/9.3.0_3/avr/include/util/delay.h **** #ifndef __DOXYGEN__
  39:/opt/homebrew/Cellar/avr-gcc@9/9.3.0_3/avr/include/util/delay.h **** #  ifndef __HAS_DELAY_CYCLES
  40:/opt/homebrew/Cellar/avr-gcc@9/9.3.0_3/avr/include/util/delay.h **** #    define __HAS_DELAY_CYCLES 1
  41:/opt/homebrew/Cellar/avr-gcc@9/9.3.0_3/avr/include/util/delay.h **** #  endif
  42:/opt/homebrew/Cellar/avr-gcc@9/9.3.0_3/avr/include/util/delay.h **** #endif  /* __DOXYGEN__ */
  43:/opt/homebrew/Cellar/avr-gcc@9/9.3.0_3/avr/include/util/delay.h **** 
  44:/opt/homebrew/Cellar/avr-gcc@9/9.3.0_3/avr/include/util/delay.h **** #include <inttypes.h>
  45:/opt/homebrew/Cellar/avr-gcc@9/9.3.0_3/avr/include/util/delay.h **** #include <util/delay_basic.h>
  46:/opt/homebrew/Cellar/avr-gcc@9/9.3.0_3/avr/include/util/delay.h **** #include <math.h>
  47:/opt/homebrew/Cellar/avr-gcc@9/9.3.0_3/avr/include/util/delay.h **** 
  48:/opt/homebrew/Cellar/avr-gcc@9/9.3.0_3/avr/include/util/delay.h **** /** \file */
  49:/opt/homebrew/Cellar/avr-gcc@9/9.3.0_3/avr/include/util/delay.h **** /** \defgroup util_delay <util/delay.h>: Convenience functions for busy-wait delay loops
  50:/opt/homebrew/Cellar/avr-gcc@9/9.3.0_3/avr/include/util/delay.h ****     \code
  51:/opt/homebrew/Cellar/avr-gcc@9/9.3.0_3/avr/include/util/delay.h ****     #define F_CPU 1000000UL  // 1 MHz
  52:/opt/homebrew/Cellar/avr-gcc@9/9.3.0_3/avr/include/util/delay.h ****     //#define F_CPU 14.7456E6
  53:/opt/homebrew/Cellar/avr-gcc@9/9.3.0_3/avr/include/util/delay.h ****     #include <util/delay.h>
  54:/opt/homebrew/Cellar/avr-gcc@9/9.3.0_3/avr/include/util/delay.h ****     \endcode
  55:/opt/homebrew/Cellar/avr-gcc@9/9.3.0_3/avr/include/util/delay.h **** 
  56:/opt/homebrew/Cellar/avr-gcc@9/9.3.0_3/avr/include/util/delay.h ****     \note As an alternative method, it is possible to pass the
  57:/opt/homebrew/Cellar/avr-gcc@9/9.3.0_3/avr/include/util/delay.h ****     F_CPU macro down to the compiler from the Makefile.
  58:/opt/homebrew/Cellar/avr-gcc@9/9.3.0_3/avr/include/util/delay.h ****     Obviously, in that case, no \c \#define statement should be
  59:/opt/homebrew/Cellar/avr-gcc@9/9.3.0_3/avr/include/util/delay.h ****     used.
  60:/opt/homebrew/Cellar/avr-gcc@9/9.3.0_3/avr/include/util/delay.h **** 
  61:/opt/homebrew/Cellar/avr-gcc@9/9.3.0_3/avr/include/util/delay.h ****     The functions in this header file are wrappers around the basic
  62:/opt/homebrew/Cellar/avr-gcc@9/9.3.0_3/avr/include/util/delay.h ****     busy-wait functions from <util/delay_basic.h>.  They are meant as
  63:/opt/homebrew/Cellar/avr-gcc@9/9.3.0_3/avr/include/util/delay.h ****     convenience functions where actual time values can be specified
  64:/opt/homebrew/Cellar/avr-gcc@9/9.3.0_3/avr/include/util/delay.h ****     rather than a number of cycles to wait for.  The idea behind is
  65:/opt/homebrew/Cellar/avr-gcc@9/9.3.0_3/avr/include/util/delay.h ****     that compile-time constant expressions will be eliminated by
  66:/opt/homebrew/Cellar/avr-gcc@9/9.3.0_3/avr/include/util/delay.h ****     compiler optimization so floating-point expressions can be used
  67:/opt/homebrew/Cellar/avr-gcc@9/9.3.0_3/avr/include/util/delay.h ****     to calculate the number of delay cycles needed based on the CPU
  68:/opt/homebrew/Cellar/avr-gcc@9/9.3.0_3/avr/include/util/delay.h ****     frequency passed by the macro F_CPU.
  69:/opt/homebrew/Cellar/avr-gcc@9/9.3.0_3/avr/include/util/delay.h **** 
  70:/opt/homebrew/Cellar/avr-gcc@9/9.3.0_3/avr/include/util/delay.h ****     \note In order for these functions to work as intended, compiler
  71:/opt/homebrew/Cellar/avr-gcc@9/9.3.0_3/avr/include/util/delay.h ****     optimizations <em>must</em> be enabled, and the delay time
  72:/opt/homebrew/Cellar/avr-gcc@9/9.3.0_3/avr/include/util/delay.h ****     <em>must</em> be an expression that is a known constant at
  73:/opt/homebrew/Cellar/avr-gcc@9/9.3.0_3/avr/include/util/delay.h ****     compile-time.  If these requirements are not met, the resulting
  74:/opt/homebrew/Cellar/avr-gcc@9/9.3.0_3/avr/include/util/delay.h ****     delay will be much longer (and basically unpredictable), and
  75:/opt/homebrew/Cellar/avr-gcc@9/9.3.0_3/avr/include/util/delay.h ****     applications that otherwise do not use floating-point calculations
  76:/opt/homebrew/Cellar/avr-gcc@9/9.3.0_3/avr/include/util/delay.h ****     will experience severe code bloat by the floating-point library
  77:/opt/homebrew/Cellar/avr-gcc@9/9.3.0_3/avr/include/util/delay.h ****     routines linked into the application.
  78:/opt/homebrew/Cellar/avr-gcc@9/9.3.0_3/avr/include/util/delay.h **** 
  79:/opt/homebrew/Cellar/avr-gcc@9/9.3.0_3/avr/include/util/delay.h ****     The functions available allow the specification of microsecond, and
  80:/opt/homebrew/Cellar/avr-gcc@9/9.3.0_3/avr/include/util/delay.h ****     millisecond delays directly, using the application-supplied macro
  81:/opt/homebrew/Cellar/avr-gcc@9/9.3.0_3/avr/include/util/delay.h ****     F_CPU as the CPU clock frequency (in Hertz).
  82:/opt/homebrew/Cellar/avr-gcc@9/9.3.0_3/avr/include/util/delay.h **** 
  83:/opt/homebrew/Cellar/avr-gcc@9/9.3.0_3/avr/include/util/delay.h **** */
  84:/opt/homebrew/Cellar/avr-gcc@9/9.3.0_3/avr/include/util/delay.h **** 
  85:/opt/homebrew/Cellar/avr-gcc@9/9.3.0_3/avr/include/util/delay.h **** #if !defined(__DOXYGEN__)
  86:/opt/homebrew/Cellar/avr-gcc@9/9.3.0_3/avr/include/util/delay.h **** static __inline__ void _delay_us(double __us) __attribute__((__always_inline__));
  87:/opt/homebrew/Cellar/avr-gcc@9/9.3.0_3/avr/include/util/delay.h **** static __inline__ void _delay_ms(double __ms) __attribute__((__always_inline__));
  88:/opt/homebrew/Cellar/avr-gcc@9/9.3.0_3/avr/include/util/delay.h **** #endif
  89:/opt/homebrew/Cellar/avr-gcc@9/9.3.0_3/avr/include/util/delay.h **** 
  90:/opt/homebrew/Cellar/avr-gcc@9/9.3.0_3/avr/include/util/delay.h **** #ifndef F_CPU
  91:/opt/homebrew/Cellar/avr-gcc@9/9.3.0_3/avr/include/util/delay.h **** /* prevent compiler error by supplying a default */
  92:/opt/homebrew/Cellar/avr-gcc@9/9.3.0_3/avr/include/util/delay.h **** # warning "F_CPU not defined for <util/delay.h>"
  93:/opt/homebrew/Cellar/avr-gcc@9/9.3.0_3/avr/include/util/delay.h **** /** \ingroup util_delay
  94:/opt/homebrew/Cellar/avr-gcc@9/9.3.0_3/avr/include/util/delay.h ****     \def F_CPU
  95:/opt/homebrew/Cellar/avr-gcc@9/9.3.0_3/avr/include/util/delay.h ****     \brief CPU frequency in Hz
  96:/opt/homebrew/Cellar/avr-gcc@9/9.3.0_3/avr/include/util/delay.h **** 
  97:/opt/homebrew/Cellar/avr-gcc@9/9.3.0_3/avr/include/util/delay.h ****     The macro F_CPU specifies the CPU frequency to be considered by
  98:/opt/homebrew/Cellar/avr-gcc@9/9.3.0_3/avr/include/util/delay.h ****     the delay macros.  This macro is normally supplied by the
  99:/opt/homebrew/Cellar/avr-gcc@9/9.3.0_3/avr/include/util/delay.h ****     environment (e.g. from within a project header, or the project's
 100:/opt/homebrew/Cellar/avr-gcc@9/9.3.0_3/avr/include/util/delay.h ****     Makefile).  The value 1 MHz here is only provided as a "vanilla"
 101:/opt/homebrew/Cellar/avr-gcc@9/9.3.0_3/avr/include/util/delay.h ****     fallback if no such user-provided definition could be found.
 102:/opt/homebrew/Cellar/avr-gcc@9/9.3.0_3/avr/include/util/delay.h **** 
 103:/opt/homebrew/Cellar/avr-gcc@9/9.3.0_3/avr/include/util/delay.h ****     In terms of the delay functions, the CPU frequency can be given as
 104:/opt/homebrew/Cellar/avr-gcc@9/9.3.0_3/avr/include/util/delay.h ****     a floating-point constant (e.g. 3.6864E6 for 3.6864 MHz).
 105:/opt/homebrew/Cellar/avr-gcc@9/9.3.0_3/avr/include/util/delay.h ****     However, the macros in <util/setbaud.h> require it to be an
 106:/opt/homebrew/Cellar/avr-gcc@9/9.3.0_3/avr/include/util/delay.h ****     integer value.
 107:/opt/homebrew/Cellar/avr-gcc@9/9.3.0_3/avr/include/util/delay.h ****  */
 108:/opt/homebrew/Cellar/avr-gcc@9/9.3.0_3/avr/include/util/delay.h **** # define F_CPU 1000000UL
 109:/opt/homebrew/Cellar/avr-gcc@9/9.3.0_3/avr/include/util/delay.h **** #endif
 110:/opt/homebrew/Cellar/avr-gcc@9/9.3.0_3/avr/include/util/delay.h **** 
 111:/opt/homebrew/Cellar/avr-gcc@9/9.3.0_3/avr/include/util/delay.h **** #ifndef __OPTIMIZE__
 112:/opt/homebrew/Cellar/avr-gcc@9/9.3.0_3/avr/include/util/delay.h **** # warning "Compiler optimizations disabled; functions from <util/delay.h> won't work as designed"
 113:/opt/homebrew/Cellar/avr-gcc@9/9.3.0_3/avr/include/util/delay.h **** #endif
 114:/opt/homebrew/Cellar/avr-gcc@9/9.3.0_3/avr/include/util/delay.h **** 
 115:/opt/homebrew/Cellar/avr-gcc@9/9.3.0_3/avr/include/util/delay.h **** #if __HAS_DELAY_CYCLES && defined(__OPTIMIZE__) && \
 116:/opt/homebrew/Cellar/avr-gcc@9/9.3.0_3/avr/include/util/delay.h ****   !defined(__DELAY_BACKWARD_COMPATIBLE__) &&	   \
 117:/opt/homebrew/Cellar/avr-gcc@9/9.3.0_3/avr/include/util/delay.h ****   __STDC_HOSTED__
 118:/opt/homebrew/Cellar/avr-gcc@9/9.3.0_3/avr/include/util/delay.h **** #  include <math.h>
 119:/opt/homebrew/Cellar/avr-gcc@9/9.3.0_3/avr/include/util/delay.h **** #endif
 120:/opt/homebrew/Cellar/avr-gcc@9/9.3.0_3/avr/include/util/delay.h **** 
 121:/opt/homebrew/Cellar/avr-gcc@9/9.3.0_3/avr/include/util/delay.h **** /**
 122:/opt/homebrew/Cellar/avr-gcc@9/9.3.0_3/avr/include/util/delay.h ****    \ingroup util_delay
 123:/opt/homebrew/Cellar/avr-gcc@9/9.3.0_3/avr/include/util/delay.h **** 
 124:/opt/homebrew/Cellar/avr-gcc@9/9.3.0_3/avr/include/util/delay.h ****    Perform a delay of \c __ms milliseconds, using _delay_loop_2().
 125:/opt/homebrew/Cellar/avr-gcc@9/9.3.0_3/avr/include/util/delay.h **** 
 126:/opt/homebrew/Cellar/avr-gcc@9/9.3.0_3/avr/include/util/delay.h ****    The macro F_CPU is supposed to be defined to a
 127:/opt/homebrew/Cellar/avr-gcc@9/9.3.0_3/avr/include/util/delay.h ****    constant defining the CPU clock frequency (in Hertz).
 128:/opt/homebrew/Cellar/avr-gcc@9/9.3.0_3/avr/include/util/delay.h **** 
 129:/opt/homebrew/Cellar/avr-gcc@9/9.3.0_3/avr/include/util/delay.h ****    The maximal possible delay is 262.14 ms / F_CPU in MHz.
 130:/opt/homebrew/Cellar/avr-gcc@9/9.3.0_3/avr/include/util/delay.h **** 
 131:/opt/homebrew/Cellar/avr-gcc@9/9.3.0_3/avr/include/util/delay.h ****    When the user request delay which exceed the maximum possible one,
 132:/opt/homebrew/Cellar/avr-gcc@9/9.3.0_3/avr/include/util/delay.h ****    _delay_ms() provides a decreased resolution functionality. In this
 133:/opt/homebrew/Cellar/avr-gcc@9/9.3.0_3/avr/include/util/delay.h ****    mode _delay_ms() will work with a resolution of 1/10 ms, providing
 134:/opt/homebrew/Cellar/avr-gcc@9/9.3.0_3/avr/include/util/delay.h ****    delays up to 6.5535 seconds (independent from CPU frequency).  The
 135:/opt/homebrew/Cellar/avr-gcc@9/9.3.0_3/avr/include/util/delay.h ****    user will not be informed about decreased resolution.
 136:/opt/homebrew/Cellar/avr-gcc@9/9.3.0_3/avr/include/util/delay.h **** 
 137:/opt/homebrew/Cellar/avr-gcc@9/9.3.0_3/avr/include/util/delay.h ****    If the avr-gcc toolchain has __builtin_avr_delay_cycles()
 138:/opt/homebrew/Cellar/avr-gcc@9/9.3.0_3/avr/include/util/delay.h ****    support, maximal possible delay is 4294967.295 ms/ F_CPU in MHz. For
 139:/opt/homebrew/Cellar/avr-gcc@9/9.3.0_3/avr/include/util/delay.h ****    values greater than the maximal possible delay, overflows results in
 140:/opt/homebrew/Cellar/avr-gcc@9/9.3.0_3/avr/include/util/delay.h ****    no delay i.e., 0ms.
 141:/opt/homebrew/Cellar/avr-gcc@9/9.3.0_3/avr/include/util/delay.h **** 
 142:/opt/homebrew/Cellar/avr-gcc@9/9.3.0_3/avr/include/util/delay.h ****    Conversion of \c __ms into clock cycles may not always result in
 143:/opt/homebrew/Cellar/avr-gcc@9/9.3.0_3/avr/include/util/delay.h ****    integer.  By default, the clock cycles rounded up to next
 144:/opt/homebrew/Cellar/avr-gcc@9/9.3.0_3/avr/include/util/delay.h ****    integer. This ensures that the user gets at least \c __ms
 145:/opt/homebrew/Cellar/avr-gcc@9/9.3.0_3/avr/include/util/delay.h ****    microseconds of delay.
 146:/opt/homebrew/Cellar/avr-gcc@9/9.3.0_3/avr/include/util/delay.h **** 
 147:/opt/homebrew/Cellar/avr-gcc@9/9.3.0_3/avr/include/util/delay.h ****    Alternatively, by defining the macro \c __DELAY_ROUND_DOWN__, or
 148:/opt/homebrew/Cellar/avr-gcc@9/9.3.0_3/avr/include/util/delay.h ****    \c __DELAY_ROUND_CLOSEST__, before including this header file, the
 149:/opt/homebrew/Cellar/avr-gcc@9/9.3.0_3/avr/include/util/delay.h ****    algorithm can be made to round down, or round to closest integer,
 150:/opt/homebrew/Cellar/avr-gcc@9/9.3.0_3/avr/include/util/delay.h ****    respectively.
 151:/opt/homebrew/Cellar/avr-gcc@9/9.3.0_3/avr/include/util/delay.h **** 
 152:/opt/homebrew/Cellar/avr-gcc@9/9.3.0_3/avr/include/util/delay.h ****    \note
 153:/opt/homebrew/Cellar/avr-gcc@9/9.3.0_3/avr/include/util/delay.h **** 
 154:/opt/homebrew/Cellar/avr-gcc@9/9.3.0_3/avr/include/util/delay.h ****    The implementation of _delay_ms() based on
 155:/opt/homebrew/Cellar/avr-gcc@9/9.3.0_3/avr/include/util/delay.h ****    __builtin_avr_delay_cycles() is not backward compatible with older
 156:/opt/homebrew/Cellar/avr-gcc@9/9.3.0_3/avr/include/util/delay.h ****    implementations.  In order to get functionality backward compatible
 157:/opt/homebrew/Cellar/avr-gcc@9/9.3.0_3/avr/include/util/delay.h ****    with previous versions, the macro \c "__DELAY_BACKWARD_COMPATIBLE__"
 158:/opt/homebrew/Cellar/avr-gcc@9/9.3.0_3/avr/include/util/delay.h ****    must be defined before including this header file. Also, the
 159:/opt/homebrew/Cellar/avr-gcc@9/9.3.0_3/avr/include/util/delay.h ****    backward compatible algorithm will be chosen if the code is
 160:/opt/homebrew/Cellar/avr-gcc@9/9.3.0_3/avr/include/util/delay.h ****    compiled in a <em>freestanding environment</em> (GCC option
 161:/opt/homebrew/Cellar/avr-gcc@9/9.3.0_3/avr/include/util/delay.h ****    \c -ffreestanding), as the math functions required for rounding are
 162:/opt/homebrew/Cellar/avr-gcc@9/9.3.0_3/avr/include/util/delay.h ****    not available to the compiler then.
 163:/opt/homebrew/Cellar/avr-gcc@9/9.3.0_3/avr/include/util/delay.h **** 
 164:/opt/homebrew/Cellar/avr-gcc@9/9.3.0_3/avr/include/util/delay.h ****  */
 165:/opt/homebrew/Cellar/avr-gcc@9/9.3.0_3/avr/include/util/delay.h **** void
 166:/opt/homebrew/Cellar/avr-gcc@9/9.3.0_3/avr/include/util/delay.h **** _delay_ms(double __ms)
 1777               		.loc 2 166 1 view .LVU443
 1778               	.LBB40:
 167:/opt/homebrew/Cellar/avr-gcc@9/9.3.0_3/avr/include/util/delay.h **** {
 168:/opt/homebrew/Cellar/avr-gcc@9/9.3.0_3/avr/include/util/delay.h **** 	double __tmp ;
 1779               		.loc 2 168 2 view .LVU444
 169:/opt/homebrew/Cellar/avr-gcc@9/9.3.0_3/avr/include/util/delay.h **** #if __HAS_DELAY_CYCLES && defined(__OPTIMIZE__) && \
 170:/opt/homebrew/Cellar/avr-gcc@9/9.3.0_3/avr/include/util/delay.h ****   !defined(__DELAY_BACKWARD_COMPATIBLE__) &&	   \
 171:/opt/homebrew/Cellar/avr-gcc@9/9.3.0_3/avr/include/util/delay.h ****   __STDC_HOSTED__
 172:/opt/homebrew/Cellar/avr-gcc@9/9.3.0_3/avr/include/util/delay.h **** 	uint32_t __ticks_dc;
 1780               		.loc 2 172 2 view .LVU445
 173:/opt/homebrew/Cellar/avr-gcc@9/9.3.0_3/avr/include/util/delay.h **** 	extern void __builtin_avr_delay_cycles(unsigned long);
 1781               		.loc 2 173 2 view .LVU446
 174:/opt/homebrew/Cellar/avr-gcc@9/9.3.0_3/avr/include/util/delay.h **** 	__tmp = ((F_CPU) / 1e3) * __ms;
 1782               		.loc 2 174 2 view .LVU447
 175:/opt/homebrew/Cellar/avr-gcc@9/9.3.0_3/avr/include/util/delay.h **** 
 176:/opt/homebrew/Cellar/avr-gcc@9/9.3.0_3/avr/include/util/delay.h **** 	#if defined(__DELAY_ROUND_DOWN__)
 177:/opt/homebrew/Cellar/avr-gcc@9/9.3.0_3/avr/include/util/delay.h **** 		__ticks_dc = (uint32_t)fabs(__tmp);
 178:/opt/homebrew/Cellar/avr-gcc@9/9.3.0_3/avr/include/util/delay.h **** 
 179:/opt/homebrew/Cellar/avr-gcc@9/9.3.0_3/avr/include/util/delay.h **** 	#elif defined(__DELAY_ROUND_CLOSEST__)
 180:/opt/homebrew/Cellar/avr-gcc@9/9.3.0_3/avr/include/util/delay.h **** 		__ticks_dc = (uint32_t)(fabs(__tmp)+0.5);
 181:/opt/homebrew/Cellar/avr-gcc@9/9.3.0_3/avr/include/util/delay.h **** 
 182:/opt/homebrew/Cellar/avr-gcc@9/9.3.0_3/avr/include/util/delay.h **** 	#else
 183:/opt/homebrew/Cellar/avr-gcc@9/9.3.0_3/avr/include/util/delay.h **** 		//round up by default
 184:/opt/homebrew/Cellar/avr-gcc@9/9.3.0_3/avr/include/util/delay.h **** 		__ticks_dc = (uint32_t)(ceil(fabs(__tmp)));
 1783               		.loc 2 184 3 view .LVU448
 185:/opt/homebrew/Cellar/avr-gcc@9/9.3.0_3/avr/include/util/delay.h **** 	#endif
 186:/opt/homebrew/Cellar/avr-gcc@9/9.3.0_3/avr/include/util/delay.h **** 
 187:/opt/homebrew/Cellar/avr-gcc@9/9.3.0_3/avr/include/util/delay.h **** 	__builtin_avr_delay_cycles(__ticks_dc);
 1784               		.loc 2 187 2 view .LVU449
 1785 005c 9FEF      		ldi r25,lo8(159999)
 1786 005e A0E7      		ldi r26,hi8(159999)
 1787 0060 B2E0      		ldi r27,hlo8(159999)
 1788 0062 9150      	1:	subi r25,1
 1789 0064 A040      		sbci r26,0
 1790 0066 B040      		sbci r27,0
 1791 0068 01F4      		brne 1b
 1792 006a 00C0      		rjmp .
 1793 006c 0000      		nop
 1794               	.LVL105:
 1795               		.loc 2 187 2 is_stmt 0 view .LVU450
 1796               	.LBE40:
 1797               	.LBE39:
 265:quantum/rgblight.c ****   }
 1798               		.loc 1 265 5 is_stmt 1 view .LVU451
 1799               	/* epilogue start */
 267:quantum/rgblight.c **** 
 1800               		.loc 1 267 1 is_stmt 0 view .LVU452
 1801 006e 0F90      		pop __tmp_reg__
 1802 0070 0F90      		pop __tmp_reg__
 1803 0072 0F90      		pop __tmp_reg__
 1804 0074 0F90      		pop __tmp_reg__
 1805 0076 DF91      		pop r29
 1806 0078 CF91      		pop r28
 265:quantum/rgblight.c ****   }
 1807               		.loc 1 265 5 view .LVU453
 1808 007a 0C94 0000 		jmp rgblight_set
 1809               	.LVL106:
 1810               		.cfi_endproc
 1811               	.LFE19:
 1813               		.section	.text.rgblight_timer_init,"ax",@progbits
 1814               	.global	rgblight_timer_init
 1816               	rgblight_timer_init:
 1817               	.LFB31:
 398:quantum/rgblight.c ****   // static uint8_t rgblight_timer_is_init = 0;
 1818               		.loc 1 398 32 is_stmt 1 view -0
 1819               		.cfi_startproc
 1820               	/* prologue: function */
 1821               	/* frame size = 0 */
 1822               	/* stack size = 0 */
 1823               	.L__stack_usage = 0
 414:quantum/rgblight.c **** }
 1824               		.loc 1 414 3 view .LVU455
 414:quantum/rgblight.c **** }
 1825               		.loc 1 414 26 is_stmt 0 view .LVU456
 1826 0000 81E0      		ldi r24,lo8(1)
 1827 0002 8093 0000 		sts rgblight_timer_enabled,r24
 1828               	/* epilogue start */
 415:quantum/rgblight.c **** void rgblight_timer_enable(void) {
 1829               		.loc 1 415 1 view .LVU457
 1830 0006 0895      		ret
 1831               		.cfi_endproc
 1832               	.LFE31:
 1834               		.section	.text.rgblight_timer_enable,"ax",@progbits
 1835               	.global	rgblight_timer_enable
 1837               	rgblight_timer_enable:
 1838               	.LFB44:
 1839               		.cfi_startproc
 1840               	/* prologue: function */
 1841               	/* frame size = 0 */
 1842               	/* stack size = 0 */
 1843               	.L__stack_usage = 0
 1844 0000 81E0      		ldi r24,lo8(1)
 1845 0002 8093 0000 		sts rgblight_timer_enabled,r24
 1846               	/* epilogue start */
 1847 0006 0895      		ret
 1848               		.cfi_endproc
 1849               	.LFE44:
 1851               		.section	.text.rgblight_timer_disable,"ax",@progbits
 1852               	.global	rgblight_timer_disable
 1854               	rgblight_timer_disable:
 1855               	.LFB33:
 420:quantum/rgblight.c ****   rgblight_timer_enabled = false;
 1856               		.loc 1 420 35 is_stmt 1 view -0
 1857               		.cfi_startproc
 1858               	/* prologue: function */
 1859               	/* frame size = 0 */
 1860               	/* stack size = 0 */
 1861               	.L__stack_usage = 0
 421:quantum/rgblight.c ****   dprintf("TIMER3 disabled.\n");
 1862               		.loc 1 421 3 view .LVU459
 421:quantum/rgblight.c ****   dprintf("TIMER3 disabled.\n");
 1863               		.loc 1 421 26 is_stmt 0 view .LVU460
 1864 0000 1092 0000 		sts rgblight_timer_enabled,__zero_reg__
 1865               		.loc 1 422 32 is_stmt 1 view .LVU461
 1866               	/* epilogue start */
 423:quantum/rgblight.c **** }
 1867               		.loc 1 423 1 is_stmt 0 view .LVU462
 1868 0004 0895      		ret
 1869               		.cfi_endproc
 1870               	.LFE33:
 1872               		.section	.text.rgblight_timer_toggle,"ax",@progbits
 1873               	.global	rgblight_timer_toggle
 1875               	rgblight_timer_toggle:
 1876               	.LFB46:
 1877               		.cfi_startproc
 1878               	/* prologue: function */
 1879               	/* frame size = 0 */
 1880               	/* stack size = 0 */
 1881               	.L__stack_usage = 0
 1882 0000 1092 0000 		sts rgblight_timer_enabled,__zero_reg__
 1883               	/* epilogue start */
 1884 0004 0895      		ret
 1885               		.cfi_endproc
 1886               	.LFE46:
 1888               		.section	.text.rgblight_show_solid_color,"ax",@progbits
 1889               	.global	rgblight_show_solid_color
 1891               	rgblight_show_solid_color:
 1892               	.LVL107:
 1893               	.LFB35:
 424:quantum/rgblight.c **** void rgblight_timer_toggle(void) {
 425:quantum/rgblight.c ****   rgblight_timer_enabled ^= rgblight_timer_enabled;
 426:quantum/rgblight.c ****   dprintf("TIMER3 toggled.\n");
 427:quantum/rgblight.c **** }
 428:quantum/rgblight.c **** 
 429:quantum/rgblight.c **** void rgblight_show_solid_color(uint8_t r, uint8_t g, uint8_t b) {
 1894               		.loc 1 429 65 is_stmt 1 view -0
 1895               		.cfi_startproc
 1896               		.loc 1 429 65 is_stmt 0 view .LVU464
 1897 0000 1F93      		push r17
 1898               	.LCFI40:
 1899               		.cfi_def_cfa_offset 3
 1900               		.cfi_offset 17, -2
 1901 0002 CF93      		push r28
 1902               	.LCFI41:
 1903               		.cfi_def_cfa_offset 4
 1904               		.cfi_offset 28, -3
 1905 0004 DF93      		push r29
 1906               	.LCFI42:
 1907               		.cfi_def_cfa_offset 5
 1908               		.cfi_offset 29, -4
 1909               	/* prologue: function */
 1910               	/* frame size = 0 */
 1911               	/* stack size = 3 */
 1912               	.L__stack_usage = 3
 1913 0006 C82F      		mov r28,r24
 1914 0008 D62F      		mov r29,r22
 1915 000a 142F      		mov r17,r20
 430:quantum/rgblight.c ****   rgblight_enable();
 1916               		.loc 1 430 3 is_stmt 1 view .LVU465
 1917 000c 0E94 0000 		call rgblight_enable
 1918               	.LVL108:
 431:quantum/rgblight.c ****   rgblight_mode(1);
 1919               		.loc 1 431 3 view .LVU466
 1920 0010 81E0      		ldi r24,lo8(1)
 1921 0012 0E94 0000 		call rgblight_mode
 1922               	.LVL109:
 432:quantum/rgblight.c ****   rgblight_setrgb(r, g, b);
 1923               		.loc 1 432 3 view .LVU467
 1924 0016 412F      		mov r20,r17
 1925 0018 6D2F      		mov r22,r29
 1926 001a 8C2F      		mov r24,r28
 1927               	/* epilogue start */
 433:quantum/rgblight.c **** }
 1928               		.loc 1 433 1 is_stmt 0 view .LVU468
 1929 001c DF91      		pop r29
 1930               	.LVL110:
 1931               		.loc 1 433 1 view .LVU469
 1932 001e CF91      		pop r28
 1933               	.LVL111:
 1934               		.loc 1 433 1 view .LVU470
 1935 0020 1F91      		pop r17
 1936               	.LVL112:
 432:quantum/rgblight.c ****   rgblight_setrgb(r, g, b);
 1937               		.loc 1 432 3 view .LVU471
 1938 0022 0C94 0000 		jmp rgblight_setrgb
 1939               	.LVL113:
 432:quantum/rgblight.c ****   rgblight_setrgb(r, g, b);
 1940               		.loc 1 432 3 view .LVU472
 1941               		.cfi_endproc
 1942               	.LFE35:
 1944               		.section	.text.rgblight_effect_breathing,"ax",@progbits
 1945               	.global	rgblight_effect_breathing
 1947               	rgblight_effect_breathing:
 1948               	.LVL114:
 1949               	.LFB37:
 434:quantum/rgblight.c **** 
 435:quantum/rgblight.c **** void rgblight_task(void) {
 436:quantum/rgblight.c ****   if (rgblight_timer_enabled) {
 437:quantum/rgblight.c ****     // mode = 1, static light, do nothing here
 438:quantum/rgblight.c ****     if (rgblight_config.mode >= 2 && rgblight_config.mode <= 5) {
 439:quantum/rgblight.c ****       // mode = 2 to 5, breathing mode
 440:quantum/rgblight.c ****       rgblight_effect_breathing(rgblight_config.mode - 2);
 441:quantum/rgblight.c ****     } else if (rgblight_config.mode >= 6 && rgblight_config.mode <= 8) {
 442:quantum/rgblight.c ****       // mode = 6 to 8, rainbow mood mod
 443:quantum/rgblight.c ****       rgblight_effect_rainbow_mood(rgblight_config.mode - 6);
 444:quantum/rgblight.c ****     } else if (rgblight_config.mode >= 9 && rgblight_config.mode <= 14) {
 445:quantum/rgblight.c ****       // mode = 9 to 14, rainbow swirl mode
 446:quantum/rgblight.c ****       rgblight_effect_rainbow_swirl(rgblight_config.mode - 9);
 447:quantum/rgblight.c ****     } else if (rgblight_config.mode >= 15 && rgblight_config.mode <= 20) {
 448:quantum/rgblight.c ****       // mode = 15 to 20, snake mode
 449:quantum/rgblight.c ****       rgblight_effect_snake(rgblight_config.mode - 15);
 450:quantum/rgblight.c ****     } else if (rgblight_config.mode >= 21 && rgblight_config.mode <= 23) {
 451:quantum/rgblight.c ****       // mode = 21 to 23, knight mode
 452:quantum/rgblight.c ****       rgblight_effect_knight(rgblight_config.mode - 21);
 453:quantum/rgblight.c ****     } else {
 454:quantum/rgblight.c ****       // mode = 24, christmas mode
 455:quantum/rgblight.c ****       rgblight_effect_christmas();
 456:quantum/rgblight.c ****     }
 457:quantum/rgblight.c ****   }
 458:quantum/rgblight.c **** }
 459:quantum/rgblight.c **** 
 460:quantum/rgblight.c **** // Effects
 461:quantum/rgblight.c **** void rgblight_effect_breathing(uint8_t interval) {
 1950               		.loc 1 461 50 is_stmt 1 view -0
 1951               		.cfi_startproc
 1952               		.loc 1 461 50 is_stmt 0 view .LVU474
 1953 0000 CF93      		push r28
 1954               	.LCFI43:
 1955               		.cfi_def_cfa_offset 3
 1956               		.cfi_offset 28, -2
 1957               	/* prologue: function */
 1958               	/* frame size = 0 */
 1959               	/* stack size = 1 */
 1960               	.L__stack_usage = 1
 1961 0002 C82F      		mov r28,r24
 462:quantum/rgblight.c ****   static uint8_t pos = 0;
 1962               		.loc 1 462 3 is_stmt 1 view .LVU475
 463:quantum/rgblight.c ****   static uint16_t last_timer = 0;
 1963               		.loc 1 463 3 view .LVU476
 464:quantum/rgblight.c **** 
 465:quantum/rgblight.c ****   if (timer_elapsed(last_timer) < pgm_read_byte(&RGBLED_BREATHING_INTERVALS[interval])) {
 1964               		.loc 1 465 3 view .LVU477
 1965               		.loc 1 465 7 is_stmt 0 view .LVU478
 1966 0004 8091 0000 		lds r24,last_timer.2180
 1967 0008 9091 0000 		lds r25,last_timer.2180+1
 1968               	.LVL115:
 1969               		.loc 1 465 7 view .LVU479
 1970 000c 0E94 0000 		call timer_elapsed
 1971               	.LVL116:
 1972               	.LBB41:
 1973               		.loc 1 465 35 is_stmt 1 view .LVU480
 1974               		.loc 1 465 35 view .LVU481
 1975               		.loc 1 465 35 view .LVU482
 1976 0010 EC2F      		mov r30,r28
 1977 0012 F0E0      		ldi r31,0
 1978 0014 E050      		subi r30,lo8(-(RGBLED_BREATHING_INTERVALS))
 1979 0016 F040      		sbci r31,hi8(-(RGBLED_BREATHING_INTERVALS))
 1980               	/* #APP */
 1981               	 ;  465 "quantum/rgblight.c" 1
 1982 0018 E491      		lpm r30, Z
 1983               		
 1984               	 ;  0 "" 2
 1985               	.LVL117:
 1986               		.loc 1 465 35 view .LVU483
 1987               	/* #NOAPP */
 1988               	.LBE41:
 1989               		.loc 1 465 6 is_stmt 0 view .LVU484
 1990 001a E817      		cp r30,r24
 1991 001c 1906      		cpc __zero_reg__,r25
 1992 001e 01F0      		breq .+2
 1993 0020 00F4      		brsh .L77
 466:quantum/rgblight.c ****     return;
 467:quantum/rgblight.c ****   }
 468:quantum/rgblight.c ****   last_timer = timer_read();
 1994               		.loc 1 468 3 is_stmt 1 view .LVU485
 1995               		.loc 1 468 16 is_stmt 0 view .LVU486
 1996 0022 0E94 0000 		call timer_read
 1997               	.LVL118:
 1998               		.loc 1 468 14 view .LVU487
 1999 0026 9093 0000 		sts last_timer.2180+1,r25
 2000 002a 8093 0000 		sts last_timer.2180,r24
 469:quantum/rgblight.c **** 
 470:quantum/rgblight.c ****   rgblight_sethsv_noeeprom(rgblight_config.hue, rgblight_config.sat, pgm_read_byte(&RGBLED_BREATHIN
 2001               		.loc 1 470 3 is_stmt 1 view .LVU488
 2002               	.LBB42:
 2003               		.loc 1 470 70 view .LVU489
 2004               	.LVL119:
 2005               		.loc 1 470 70 view .LVU490
 2006               		.loc 1 470 70 view .LVU491
 2007 002e E091 0000 		lds r30,pos.2179
 2008 0032 F0E0      		ldi r31,0
 2009 0034 E050      		subi r30,lo8(-(RGBLED_BREATHING_TABLE))
 2010 0036 F040      		sbci r31,hi8(-(RGBLED_BREATHING_TABLE))
 2011               	/* #APP */
 2012               	 ;  470 "quantum/rgblight.c" 1
 2013 0038 4491      		lpm r20, Z
 2014               		
 2015               	 ;  0 "" 2
 2016               	.LVL120:
 2017               		.loc 1 470 70 view .LVU492
 2018               	/* #NOAPP */
 2019               	.LBE42:
 2020               		.loc 1 470 43 is_stmt 0 view .LVU493
 2021 003a 8091 0000 		lds r24,rgblight_config
 2022 003e 881F      		rol r24
 2023 0040 8827      		clr r24
 2024 0042 881F      		rol r24
 2025 0044 9091 0000 		lds r25,rgblight_config+1
 2026 0048 292F      		mov r18,r25
 2027 004a 220F      		lsl r18
 2028 004c 97FB      		bst r25,7
 2029 004e 9927      		clr r25
 2030 0050 90F9      		bld r25,0
 2031               		.loc 1 470 3 view .LVU494
 2032 0052 6091 0000 		lds r22,rgblight_config+2
 2033 0056 822B      		or r24,r18
 2034 0058 0E94 0000 		call rgblight_sethsv_noeeprom
 2035               	.LVL121:
 471:quantum/rgblight.c ****   pos = (pos + 1) % 256;
 2036               		.loc 1 471 3 is_stmt 1 view .LVU495
 2037               		.loc 1 471 7 is_stmt 0 view .LVU496
 2038 005c 8091 0000 		lds r24,pos.2179
 2039 0060 8F5F      		subi r24,lo8(-(1))
 2040 0062 8093 0000 		sts pos.2179,r24
 2041               	.L77:
 2042               	/* epilogue start */
 472:quantum/rgblight.c **** }
 2043               		.loc 1 472 1 view .LVU497
 2044 0066 CF91      		pop r28
 2045               	.LVL122:
 2046               		.loc 1 472 1 view .LVU498
 2047 0068 0895      		ret
 2048               		.cfi_endproc
 2049               	.LFE37:
 2051               		.section	.text.rgblight_effect_rainbow_mood,"ax",@progbits
 2052               	.global	rgblight_effect_rainbow_mood
 2054               	rgblight_effect_rainbow_mood:
 2055               	.LVL123:
 2056               	.LFB38:
 473:quantum/rgblight.c **** void rgblight_effect_rainbow_mood(uint8_t interval) {
 2057               		.loc 1 473 53 is_stmt 1 view -0
 2058               		.cfi_startproc
 2059               		.loc 1 473 53 is_stmt 0 view .LVU500
 2060 0000 CF93      		push r28
 2061               	.LCFI44:
 2062               		.cfi_def_cfa_offset 3
 2063               		.cfi_offset 28, -2
 2064               	/* prologue: function */
 2065               	/* frame size = 0 */
 2066               	/* stack size = 1 */
 2067               	.L__stack_usage = 1
 2068 0002 C82F      		mov r28,r24
 474:quantum/rgblight.c ****   static uint16_t current_hue = 0;
 2069               		.loc 1 474 3 is_stmt 1 view .LVU501
 475:quantum/rgblight.c ****   static uint16_t last_timer = 0;
 2070               		.loc 1 475 3 view .LVU502
 476:quantum/rgblight.c **** 
 477:quantum/rgblight.c ****   if (timer_elapsed(last_timer) < pgm_read_byte(&RGBLED_RAINBOW_MOOD_INTERVALS[interval])) {
 2071               		.loc 1 477 3 view .LVU503
 2072               		.loc 1 477 7 is_stmt 0 view .LVU504
 2073 0004 8091 0000 		lds r24,last_timer.2191
 2074 0008 9091 0000 		lds r25,last_timer.2191+1
 2075               	.LVL124:
 2076               		.loc 1 477 7 view .LVU505
 2077 000c 0E94 0000 		call timer_elapsed
 2078               	.LVL125:
 2079               	.LBB43:
 2080               		.loc 1 477 35 is_stmt 1 view .LVU506
 2081               		.loc 1 477 35 view .LVU507
 2082               		.loc 1 477 35 view .LVU508
 2083 0010 EC2F      		mov r30,r28
 2084 0012 F0E0      		ldi r31,0
 2085 0014 E050      		subi r30,lo8(-(RGBLED_RAINBOW_MOOD_INTERVALS))
 2086 0016 F040      		sbci r31,hi8(-(RGBLED_RAINBOW_MOOD_INTERVALS))
 2087               	/* #APP */
 2088               	 ;  477 "quantum/rgblight.c" 1
 2089 0018 E491      		lpm r30, Z
 2090               		
 2091               	 ;  0 "" 2
 2092               	.LVL126:
 2093               		.loc 1 477 35 view .LVU509
 2094               	/* #NOAPP */
 2095               	.LBE43:
 2096               		.loc 1 477 6 is_stmt 0 view .LVU510
 2097 001a E817      		cp r30,r24
 2098 001c 1906      		cpc __zero_reg__,r25
 2099 001e 01F0      		breq .+2
 2100 0020 00F4      		brsh .L79
 478:quantum/rgblight.c ****     return;
 479:quantum/rgblight.c ****   }
 480:quantum/rgblight.c ****   last_timer = timer_read();
 2101               		.loc 1 480 3 is_stmt 1 view .LVU511
 2102               		.loc 1 480 16 is_stmt 0 view .LVU512
 2103 0022 0E94 0000 		call timer_read
 2104               	.LVL127:
 2105               		.loc 1 480 14 view .LVU513
 2106 0026 9093 0000 		sts last_timer.2191+1,r25
 2107 002a 8093 0000 		sts last_timer.2191,r24
 481:quantum/rgblight.c ****   rgblight_sethsv_noeeprom(current_hue, rgblight_config.sat, rgblight_config.val);
 2108               		.loc 1 481 3 is_stmt 1 view .LVU514
 2109 002e 4091 0000 		lds r20,rgblight_config+3
 2110 0032 6091 0000 		lds r22,rgblight_config+2
 2111 0036 8091 0000 		lds r24,current_hue.2190
 2112 003a 9091 0000 		lds r25,current_hue.2190+1
 2113 003e 0E94 0000 		call rgblight_sethsv_noeeprom
 2114               	.LVL128:
 482:quantum/rgblight.c ****   current_hue = (current_hue + 1) % 360;
 2115               		.loc 1 482 3 view .LVU515
 2116               		.loc 1 482 30 is_stmt 0 view .LVU516
 2117 0042 8091 0000 		lds r24,current_hue.2190
 2118 0046 9091 0000 		lds r25,current_hue.2190+1
 2119 004a 0196      		adiw r24,1
 2120               		.loc 1 482 35 view .LVU517
 2121 004c 68E6      		ldi r22,lo8(104)
 2122 004e 71E0      		ldi r23,lo8(1)
 2123 0050 0E94 0000 		call __udivmodhi4
 2124               		.loc 1 482 15 view .LVU518
 2125 0054 9093 0000 		sts current_hue.2190+1,r25
 2126 0058 8093 0000 		sts current_hue.2190,r24
 2127               	.L79:
 2128               	/* epilogue start */
 483:quantum/rgblight.c **** }
 2129               		.loc 1 483 1 view .LVU519
 2130 005c CF91      		pop r28
 2131               	.LVL129:
 2132               		.loc 1 483 1 view .LVU520
 2133 005e 0895      		ret
 2134               		.cfi_endproc
 2135               	.LFE38:
 2137               		.section	.text.rgblight_effect_rainbow_swirl,"ax",@progbits
 2138               	.global	rgblight_effect_rainbow_swirl
 2140               	rgblight_effect_rainbow_swirl:
 2141               	.LVL130:
 2142               	.LFB39:
 484:quantum/rgblight.c **** void rgblight_effect_rainbow_swirl(uint8_t interval) {
 2143               		.loc 1 484 54 is_stmt 1 view -0
 2144               		.cfi_startproc
 2145               		.loc 1 484 54 is_stmt 0 view .LVU522
 2146 0000 FF92      		push r15
 2147               	.LCFI45:
 2148               		.cfi_def_cfa_offset 3
 2149               		.cfi_offset 15, -2
 2150 0002 0F93      		push r16
 2151               	.LCFI46:
 2152               		.cfi_def_cfa_offset 4
 2153               		.cfi_offset 16, -3
 2154 0004 1F93      		push r17
 2155               	.LCFI47:
 2156               		.cfi_def_cfa_offset 5
 2157               		.cfi_offset 17, -4
 2158 0006 CF93      		push r28
 2159               	.LCFI48:
 2160               		.cfi_def_cfa_offset 6
 2161               		.cfi_offset 28, -5
 2162 0008 DF93      		push r29
 2163               	.LCFI49:
 2164               		.cfi_def_cfa_offset 7
 2165               		.cfi_offset 29, -6
 2166               	/* prologue: function */
 2167               	/* frame size = 0 */
 2168               	/* stack size = 5 */
 2169               	.L__stack_usage = 5
 2170 000a F82E      		mov r15,r24
 485:quantum/rgblight.c ****   static uint16_t current_hue = 0;
 2171               		.loc 1 485 3 is_stmt 1 view .LVU523
 486:quantum/rgblight.c ****   static uint16_t last_timer = 0;
 2172               		.loc 1 486 3 view .LVU524
 487:quantum/rgblight.c ****   uint16_t hue;
 2173               		.loc 1 487 3 view .LVU525
 488:quantum/rgblight.c ****   uint8_t i;
 2174               		.loc 1 488 3 view .LVU526
 489:quantum/rgblight.c ****   if (timer_elapsed(last_timer) < pgm_read_byte(&RGBLED_RAINBOW_MOOD_INTERVALS[interval / 2])) {
 2175               		.loc 1 489 3 view .LVU527
 2176               		.loc 1 489 7 is_stmt 0 view .LVU528
 2177 000c 8091 0000 		lds r24,last_timer.2199
 2178 0010 9091 0000 		lds r25,last_timer.2199+1
 2179               	.LVL131:
 2180               		.loc 1 489 7 view .LVU529
 2181 0014 0E94 0000 		call timer_elapsed
 2182               	.LVL132:
 2183               	.LBB44:
 2184               		.loc 1 489 35 is_stmt 1 view .LVU530
 2185               		.loc 1 489 35 view .LVU531
 2186               		.loc 1 489 35 view .LVU532
 2187 0018 EF2D      		mov r30,r15
 2188 001a E695      		lsr r30
 2189 001c F0E0      		ldi r31,0
 2190 001e E050      		subi r30,lo8(-(RGBLED_RAINBOW_MOOD_INTERVALS))
 2191 0020 F040      		sbci r31,hi8(-(RGBLED_RAINBOW_MOOD_INTERVALS))
 2192               	/* #APP */
 2193               	 ;  489 "quantum/rgblight.c" 1
 2194 0022 E491      		lpm r30, Z
 2195               		
 2196               	 ;  0 "" 2
 2197               	.LVL133:
 2198               		.loc 1 489 35 view .LVU533
 2199               	/* #NOAPP */
 2200               	.LBE44:
 2201               		.loc 1 489 6 is_stmt 0 view .LVU534
 2202 0024 E817      		cp r30,r24
 2203 0026 1906      		cpc __zero_reg__,r25
 2204 0028 01F0      		breq .+2
 2205 002a 00F4      		brsh .L81
 490:quantum/rgblight.c ****     return;
 491:quantum/rgblight.c ****   }
 492:quantum/rgblight.c ****   last_timer = timer_read();
 2206               		.loc 1 492 3 is_stmt 1 view .LVU535
 2207               		.loc 1 492 16 is_stmt 0 view .LVU536
 2208 002c 0E94 0000 		call timer_read
 2209               	.LVL134:
 2210               		.loc 1 492 14 view .LVU537
 2211 0030 9093 0000 		sts last_timer.2199+1,r25
 2212 0034 8093 0000 		sts last_timer.2199,r24
 493:quantum/rgblight.c ****   for (i = 0; i < RGBLED_NUM; i++) {
 2213               		.loc 1 493 3 is_stmt 1 view .LVU538
 2214               	.LVL135:
 2215               		.loc 1 493 15 view .LVU539
 494:quantum/rgblight.c ****     hue = (360 / RGBLED_NUM * i + current_hue) % 360;
 2216               		.loc 1 494 5 view .LVU540
 2217               		.loc 1 494 33 is_stmt 0 view .LVU541
 2218 0038 0091 0000 		lds r16,current_hue.2198
 2219 003c 1091 0000 		lds r17,current_hue.2198+1
 2220               	.LVL136:
 495:quantum/rgblight.c ****     sethsv(hue, rgblight_config.sat, rgblight_config.val, (LED_TYPE *)&led[i]);
 2221               		.loc 1 495 5 is_stmt 1 view .LVU542
 494:quantum/rgblight.c ****     hue = (360 / RGBLED_NUM * i + current_hue) % 360;
 2222               		.loc 1 494 9 is_stmt 0 view .LVU543
 2223 0040 C8E6      		ldi r28,lo8(104)
 2224 0042 D1E0      		ldi r29,lo8(1)
 2225 0044 C801      		movw r24,r16
 2226 0046 BE01      		movw r22,r28
 2227 0048 0E94 0000 		call __udivmodhi4
 2228               	.LVL137:
 2229               		.loc 1 495 5 view .LVU544
 2230 004c 20E0      		ldi r18,lo8(led)
 2231 004e 30E0      		ldi r19,hi8(led)
 2232 0050 4091 0000 		lds r20,rgblight_config+3
 2233 0054 6091 0000 		lds r22,rgblight_config+2
 2234 0058 0E94 0000 		call sethsv
 2235               	.LVL138:
 493:quantum/rgblight.c ****   for (i = 0; i < RGBLED_NUM; i++) {
 2236               		.loc 1 493 31 is_stmt 1 view .LVU545
 493:quantum/rgblight.c ****   for (i = 0; i < RGBLED_NUM; i++) {
 2237               		.loc 1 493 15 view .LVU546
 494:quantum/rgblight.c ****     hue = (360 / RGBLED_NUM * i + current_hue) % 360;
 2238               		.loc 1 494 5 view .LVU547
 2239               		.loc 1 495 5 view .LVU548
 494:quantum/rgblight.c ****     hue = (360 / RGBLED_NUM * i + current_hue) % 360;
 2240               		.loc 1 494 33 is_stmt 0 view .LVU549
 2241 005c C801      		movw r24,r16
 2242 005e 8C54      		subi r24,76
 2243 0060 9F4F      		sbci r25,-1
 494:quantum/rgblight.c ****     hue = (360 / RGBLED_NUM * i + current_hue) % 360;
 2244               		.loc 1 494 9 view .LVU550
 2245 0062 BE01      		movw r22,r28
 2246 0064 0E94 0000 		call __udivmodhi4
 2247               	.LVL139:
 2248               		.loc 1 495 5 view .LVU551
 2249 0068 20E0      		ldi r18,lo8(led+3)
 2250 006a 30E0      		ldi r19,hi8(led+3)
 2251 006c 4091 0000 		lds r20,rgblight_config+3
 2252 0070 6091 0000 		lds r22,rgblight_config+2
 2253 0074 0E94 0000 		call sethsv
 2254               	.LVL140:
 493:quantum/rgblight.c ****   for (i = 0; i < RGBLED_NUM; i++) {
 2255               		.loc 1 493 31 is_stmt 1 view .LVU552
 493:quantum/rgblight.c ****   for (i = 0; i < RGBLED_NUM; i++) {
 2256               		.loc 1 493 15 view .LVU553
 496:quantum/rgblight.c ****   }
 497:quantum/rgblight.c ****   rgblight_set();
 2257               		.loc 1 497 3 view .LVU554
 2258 0078 0E94 0000 		call rgblight_set
 2259               	.LVL141:
 498:quantum/rgblight.c **** 
 499:quantum/rgblight.c ****   if (interval % 2) {
 2260               		.loc 1 499 3 view .LVU555
 2261 007c 8091 0000 		lds r24,current_hue.2198
 2262 0080 9091 0000 		lds r25,current_hue.2198+1
 2263               		.loc 1 499 6 is_stmt 0 view .LVU556
 2264 0084 F0FE      		sbrs r15,0
 2265 0086 00C0      		rjmp .L83
 500:quantum/rgblight.c ****     current_hue = (current_hue + 1) % 360;
 2266               		.loc 1 500 5 is_stmt 1 view .LVU557
 2267               		.loc 1 500 32 is_stmt 0 view .LVU558
 2268 0088 0196      		adiw r24,1
 2269               		.loc 1 500 37 view .LVU559
 2270 008a BE01      		movw r22,r28
 2271 008c 0E94 0000 		call __udivmodhi4
 2272               	.L84:
 501:quantum/rgblight.c ****   } else {
 502:quantum/rgblight.c ****     if (current_hue - 1 < 0) {
 503:quantum/rgblight.c ****       current_hue = 359;
 504:quantum/rgblight.c ****     } else {
 505:quantum/rgblight.c ****       current_hue = current_hue - 1;
 2273               		.loc 1 505 19 view .LVU560
 2274 0090 9093 0000 		sts current_hue.2198+1,r25
 2275 0094 8093 0000 		sts current_hue.2198,r24
 2276               	.LVL142:
 2277               	.L81:
 2278               	/* epilogue start */
 506:quantum/rgblight.c ****     }
 507:quantum/rgblight.c ****   }
 508:quantum/rgblight.c **** }
 2279               		.loc 1 508 1 view .LVU561
 2280 0098 DF91      		pop r29
 2281 009a CF91      		pop r28
 2282 009c 1F91      		pop r17
 2283 009e 0F91      		pop r16
 2284 00a0 FF90      		pop r15
 2285               	.LVL143:
 2286               		.loc 1 508 1 view .LVU562
 2287 00a2 0895      		ret
 2288               	.LVL144:
 2289               	.L83:
 502:quantum/rgblight.c ****       current_hue = 359;
 2290               		.loc 1 502 5 is_stmt 1 view .LVU563
 505:quantum/rgblight.c ****     }
 2291               		.loc 1 505 7 view .LVU564
 505:quantum/rgblight.c ****     }
 2292               		.loc 1 505 33 is_stmt 0 view .LVU565
 2293 00a4 0197      		sbiw r24,1
 2294 00a6 00C0      		rjmp .L84
 2295               		.cfi_endproc
 2296               	.LFE39:
 2298               		.section	.text.rgblight_effect_snake,"ax",@progbits
 2299               	.global	rgblight_effect_snake
 2301               	rgblight_effect_snake:
 2302               	.LVL145:
 2303               	.LFB40:
 509:quantum/rgblight.c **** void rgblight_effect_snake(uint8_t interval) {
 2304               		.loc 1 509 46 is_stmt 1 view -0
 2305               		.cfi_startproc
 2306               		.loc 1 509 46 is_stmt 0 view .LVU567
 2307 0000 AF92      		push r10
 2308               	.LCFI50:
 2309               		.cfi_def_cfa_offset 3
 2310               		.cfi_offset 10, -2
 2311 0002 BF92      		push r11
 2312               	.LCFI51:
 2313               		.cfi_def_cfa_offset 4
 2314               		.cfi_offset 11, -3
 2315 0004 CF92      		push r12
 2316               	.LCFI52:
 2317               		.cfi_def_cfa_offset 5
 2318               		.cfi_offset 12, -4
 2319 0006 DF92      		push r13
 2320               	.LCFI53:
 2321               		.cfi_def_cfa_offset 6
 2322               		.cfi_offset 13, -5
 2323 0008 EF92      		push r14
 2324               	.LCFI54:
 2325               		.cfi_def_cfa_offset 7
 2326               		.cfi_offset 14, -6
 2327 000a FF92      		push r15
 2328               	.LCFI55:
 2329               		.cfi_def_cfa_offset 8
 2330               		.cfi_offset 15, -7
 2331 000c 0F93      		push r16
 2332               	.LCFI56:
 2333               		.cfi_def_cfa_offset 9
 2334               		.cfi_offset 16, -8
 2335 000e 1F93      		push r17
 2336               	.LCFI57:
 2337               		.cfi_def_cfa_offset 10
 2338               		.cfi_offset 17, -9
 2339 0010 CF93      		push r28
 2340               	.LCFI58:
 2341               		.cfi_def_cfa_offset 11
 2342               		.cfi_offset 28, -10
 2343 0012 DF93      		push r29
 2344               	.LCFI59:
 2345               		.cfi_def_cfa_offset 12
 2346               		.cfi_offset 29, -11
 2347               	/* prologue: function */
 2348               	/* frame size = 0 */
 2349               	/* stack size = 10 */
 2350               	.L__stack_usage = 10
 2351 0014 C82F      		mov r28,r24
 510:quantum/rgblight.c ****   static uint8_t pos = 0;
 2352               		.loc 1 510 3 is_stmt 1 view .LVU568
 511:quantum/rgblight.c ****   static uint16_t last_timer = 0;
 2353               		.loc 1 511 3 view .LVU569
 512:quantum/rgblight.c ****   uint8_t i, j;
 2354               		.loc 1 512 3 view .LVU570
 513:quantum/rgblight.c ****   int8_t k;
 2355               		.loc 1 513 3 view .LVU571
 514:quantum/rgblight.c ****   int8_t increment = 1;
 2356               		.loc 1 514 3 view .LVU572
 2357               	.LVL146:
 515:quantum/rgblight.c ****   if (interval % 2) {
 2358               		.loc 1 515 3 view .LVU573
 516:quantum/rgblight.c ****     increment = -1;
 2359               		.loc 1 516 15 is_stmt 0 view .LVU574
 2360 0016 1FEF      		ldi r17,lo8(-1)
 515:quantum/rgblight.c ****   if (interval % 2) {
 2361               		.loc 1 515 6 view .LVU575
 2362 0018 80FF      		sbrs r24,0
 514:quantum/rgblight.c ****   int8_t increment = 1;
 2363               		.loc 1 514 10 view .LVU576
 2364 001a 11E0      		ldi r17,lo8(1)
 2365               	.L86:
 2366               	.LVL147:
 517:quantum/rgblight.c ****   }
 518:quantum/rgblight.c ****   if (timer_elapsed(last_timer) < pgm_read_byte(&RGBLED_SNAKE_INTERVALS[interval / 2])) {
 2367               		.loc 1 518 3 is_stmt 1 view .LVU577
 2368               		.loc 1 518 7 is_stmt 0 view .LVU578
 2369 001c 8091 0000 		lds r24,last_timer.2212
 2370 0020 9091 0000 		lds r25,last_timer.2212+1
 2371               	.LVL148:
 2372               		.loc 1 518 7 view .LVU579
 2373 0024 0E94 0000 		call timer_elapsed
 2374               	.LVL149:
 2375               	.LBB45:
 2376               		.loc 1 518 35 is_stmt 1 view .LVU580
 2377               		.loc 1 518 35 view .LVU581
 2378               		.loc 1 518 35 view .LVU582
 2379 0028 C695      		lsr r28
 2380               	.LVL150:
 2381               		.loc 1 518 35 is_stmt 0 view .LVU583
 2382 002a EC2F      		mov r30,r28
 2383 002c F0E0      		ldi r31,0
 2384 002e E050      		subi r30,lo8(-(RGBLED_SNAKE_INTERVALS))
 2385 0030 F040      		sbci r31,hi8(-(RGBLED_SNAKE_INTERVALS))
 2386               	/* #APP */
 2387               	 ;  518 "quantum/rgblight.c" 1
 2388 0032 E491      		lpm r30, Z
 2389               		
 2390               	 ;  0 "" 2
 2391               	.LVL151:
 2392               		.loc 1 518 35 is_stmt 1 view .LVU584
 2393               	/* #NOAPP */
 2394               	.LBE45:
 2395               		.loc 1 518 6 is_stmt 0 view .LVU585
 2396 0034 E817      		cp r30,r24
 2397 0036 1906      		cpc __zero_reg__,r25
 2398 0038 01F0      		breq .+4
 2399 003a 00F0      		brlo .+2
 2400 003c 00C0      		rjmp .L85
 519:quantum/rgblight.c ****     return;
 520:quantum/rgblight.c ****   }
 521:quantum/rgblight.c ****   last_timer = timer_read();
 2401               		.loc 1 521 3 is_stmt 1 view .LVU586
 2402               		.loc 1 521 16 is_stmt 0 view .LVU587
 2403 003e 0E94 0000 		call timer_read
 2404               	.LVL152:
 2405               		.loc 1 521 14 view .LVU588
 2406 0042 9093 0000 		sts last_timer.2212+1,r25
 2407 0046 8093 0000 		sts last_timer.2212,r24
 522:quantum/rgblight.c ****   for (i = 0; i < RGBLED_NUM; i++) {
 2408               		.loc 1 522 3 is_stmt 1 view .LVU589
 2409               	.LVL153:
 2410               		.loc 1 522 15 view .LVU590
 2411 004a C0E0      		ldi r28,lo8(led)
 2412 004c D0E0      		ldi r29,hi8(led)
 521:quantum/rgblight.c ****   for (i = 0; i < RGBLED_NUM; i++) {
 2413               		.loc 1 521 14 is_stmt 0 view .LVU591
 2414 004e D12C      		mov r13,__zero_reg__
 2415 0050 C12C      		mov r12,__zero_reg__
 523:quantum/rgblight.c ****     led[i].r = 0;
 524:quantum/rgblight.c ****     led[i].g = 0;
 525:quantum/rgblight.c ****     led[i].b = 0;
 526:quantum/rgblight.c ****     for (j = 0; j < RGBLIGHT_EFFECT_SNAKE_LENGTH; j++) {
 527:quantum/rgblight.c ****       k = pos + j * increment;
 528:quantum/rgblight.c ****       if (k < 0) {
 529:quantum/rgblight.c ****         k = k + RGBLED_NUM;
 530:quantum/rgblight.c ****       }
 531:quantum/rgblight.c ****       if (i == k) {
 532:quantum/rgblight.c ****         sethsv(rgblight_config.hue, rgblight_config.sat, (uint8_t)(rgblight_config.val*(RGBLIGHT_EF
 2416               		.loc 1 532 120 view .LVU592
 2417 0052 27E0      		ldi r18,lo8(7)
 2418 0054 A22E      		mov r10,r18
 2419 0056 B12C      		mov r11,__zero_reg__
 2420               	.LVL154:
 2421               	.L91:
 523:quantum/rgblight.c ****     led[i].r = 0;
 2422               		.loc 1 523 5 is_stmt 1 view .LVU593
 523:quantum/rgblight.c ****     led[i].r = 0;
 2423               		.loc 1 523 14 is_stmt 0 view .LVU594
 2424 0058 1982      		std Y+1,__zero_reg__
 524:quantum/rgblight.c ****     led[i].b = 0;
 2425               		.loc 1 524 5 is_stmt 1 view .LVU595
 524:quantum/rgblight.c ****     led[i].b = 0;
 2426               		.loc 1 524 14 is_stmt 0 view .LVU596
 2427 005a 1882      		st Y,__zero_reg__
 525:quantum/rgblight.c ****     for (j = 0; j < RGBLIGHT_EFFECT_SNAKE_LENGTH; j++) {
 2428               		.loc 1 525 5 is_stmt 1 view .LVU597
 525:quantum/rgblight.c ****     for (j = 0; j < RGBLIGHT_EFFECT_SNAKE_LENGTH; j++) {
 2429               		.loc 1 525 14 is_stmt 0 view .LVU598
 2430 005c 1A82      		std Y+2,__zero_reg__
 526:quantum/rgblight.c ****       k = pos + j * increment;
 2431               		.loc 1 526 5 is_stmt 1 view .LVU599
 2432               	.LVL155:
 526:quantum/rgblight.c ****       k = pos + j * increment;
 2433               		.loc 1 526 17 view .LVU600
 525:quantum/rgblight.c ****     for (j = 0; j < RGBLIGHT_EFFECT_SNAKE_LENGTH; j++) {
 2434               		.loc 1 525 14 is_stmt 0 view .LVU601
 2435 005e 87E0      		ldi r24,lo8(7)
 2436 0060 E82E      		mov r14,r24
 2437 0062 F12C      		mov r15,__zero_reg__
 2438 0064 00E0      		ldi r16,0
 2439               	.LVL156:
 2440               	.L90:
 527:quantum/rgblight.c ****       if (k < 0) {
 2441               		.loc 1 527 7 is_stmt 1 view .LVU602
 527:quantum/rgblight.c ****       if (k < 0) {
 2442               		.loc 1 527 15 is_stmt 0 view .LVU603
 2443 0066 8091 0000 		lds r24,pos.2211
 2444 006a 800F      		add r24,r16
 2445               	.LVL157:
 528:quantum/rgblight.c ****         k = k + RGBLED_NUM;
 2446               		.loc 1 528 7 is_stmt 1 view .LVU604
 528:quantum/rgblight.c ****         k = k + RGBLED_NUM;
 2447               		.loc 1 528 10 is_stmt 0 view .LVU605
 2448 006c 87FD      		sbrc r24,7
 529:quantum/rgblight.c ****       }
 2449               		.loc 1 529 9 is_stmt 1 view .LVU606
 529:quantum/rgblight.c ****       }
 2450               		.loc 1 529 15 is_stmt 0 view .LVU607
 2451 006e 8E5F      		subi r24,lo8(-(2))
 2452               	.LVL158:
 2453               	.L88:
 531:quantum/rgblight.c ****         sethsv(rgblight_config.hue, rgblight_config.sat, (uint8_t)(rgblight_config.val*(RGBLIGHT_EF
 2454               		.loc 1 531 7 is_stmt 1 view .LVU608
 531:quantum/rgblight.c ****         sethsv(rgblight_config.hue, rgblight_config.sat, (uint8_t)(rgblight_config.val*(RGBLIGHT_EF
 2455               		.loc 1 531 13 is_stmt 0 view .LVU609
 2456 0070 082E      		mov __tmp_reg__,r24
 2457 0072 000C      		lsl r0
 2458 0074 990B      		sbc r25,r25
 531:quantum/rgblight.c ****         sethsv(rgblight_config.hue, rgblight_config.sat, (uint8_t)(rgblight_config.val*(RGBLIGHT_EF
 2459               		.loc 1 531 10 view .LVU610
 2460 0076 8C15      		cp r24,r12
 2461 0078 9D05      		cpc r25,r13
 2462 007a 01F4      		brne .L89
 2463               		.loc 1 532 9 is_stmt 1 view .LVU611
 2464               		.loc 1 532 83 is_stmt 0 view .LVU612
 2465 007c 2091 0000 		lds r18,rgblight_config+3
 2466               		.loc 1 532 87 view .LVU613
 2467 0080 2E9D      		mul r18,r14
 2468 0082 C001      		movw r24,r0
 2469 0084 2F9D      		mul r18,r15
 2470 0086 900D      		add r25,r0
 2471 0088 1124      		clr __zero_reg__
 2472               	.LVL159:
 2473               		.loc 1 532 120 view .LVU614
 2474 008a B501      		movw r22,r10
 2475 008c 0E94 0000 		call __divmodhi4
 2476 0090 462F      		mov r20,r22
 2477               		.loc 1 532 31 view .LVU615
 2478 0092 8091 0000 		lds r24,rgblight_config
 2479 0096 881F      		rol r24
 2480 0098 8827      		clr r24
 2481 009a 881F      		rol r24
 2482 009c 9091 0000 		lds r25,rgblight_config+1
 2483 00a0 592F      		mov r21,r25
 2484 00a2 550F      		lsl r21
 2485 00a4 97FB      		bst r25,7
 2486 00a6 9927      		clr r25
 2487 00a8 90F9      		bld r25,0
 2488               		.loc 1 532 9 view .LVU616
 2489 00aa 9E01      		movw r18,r28
 2490 00ac 6091 0000 		lds r22,rgblight_config+2
 2491 00b0 852B      		or r24,r21
 2492 00b2 0E94 0000 		call sethsv
 2493               	.LVL160:
 2494               	.L89:
 526:quantum/rgblight.c ****       k = pos + j * increment;
 2495               		.loc 1 526 51 is_stmt 1 discriminator 2 view .LVU617
 526:quantum/rgblight.c ****       k = pos + j * increment;
 2496               		.loc 1 526 17 discriminator 2 view .LVU618
 2497 00b6 010F      		add r16,r17
 2498 00b8 81E0      		ldi r24,1
 2499 00ba E81A      		sub r14,r24
 2500 00bc F108      		sbc r15,__zero_reg__
 526:quantum/rgblight.c ****       k = pos + j * increment;
 2501               		.loc 1 526 5 is_stmt 0 discriminator 2 view .LVU619
 2502 00be 01F4      		brne .L90
 522:quantum/rgblight.c ****     led[i].r = 0;
 2503               		.loc 1 522 31 is_stmt 1 discriminator 2 view .LVU620
 2504               	.LVL161:
 522:quantum/rgblight.c ****     led[i].r = 0;
 2505               		.loc 1 522 15 discriminator 2 view .LVU621
 2506 00c0 2396      		adiw r28,3
 522:quantum/rgblight.c ****     led[i].r = 0;
 2507               		.loc 1 522 3 is_stmt 0 discriminator 2 view .LVU622
 2508 00c2 CA94      		dec r12
 2509 00c4 CD28      		or r12,r13
 2510 00c6 01F4      		brne .L95
 533:quantum/rgblight.c ****       }
 534:quantum/rgblight.c ****     }
 535:quantum/rgblight.c ****   }
 536:quantum/rgblight.c ****   rgblight_set();
 2511               		.loc 1 536 3 is_stmt 1 view .LVU623
 2512 00c8 0E94 0000 		call rgblight_set
 2513               	.LVL162:
 537:quantum/rgblight.c ****   if (increment == 1) {
 2514               		.loc 1 537 3 view .LVU624
 2515 00cc 8091 0000 		lds r24,pos.2211
 2516               		.loc 1 537 6 is_stmt 0 view .LVU625
 2517 00d0 1130      		cpi r17,lo8(1)
 2518 00d2 01F4      		brne .L92
 538:quantum/rgblight.c ****     if (pos - 1 < 0) {
 2519               		.loc 1 538 5 is_stmt 1 view .LVU626
 2520               		.loc 1 538 8 is_stmt 0 view .LVU627
 2521 00d4 8111      		cpse r24,__zero_reg__
 2522 00d6 00C0      		rjmp .L93
 539:quantum/rgblight.c ****       pos = RGBLED_NUM - 1;
 2523               		.loc 1 539 7 is_stmt 1 view .LVU628
 2524               		.loc 1 539 11 is_stmt 0 view .LVU629
 2525 00d8 1093 0000 		sts pos.2211,r17
 2526               	.LVL163:
 2527               	.L85:
 2528               	/* epilogue start */
 540:quantum/rgblight.c ****     } else {
 541:quantum/rgblight.c ****       pos -= 1;
 542:quantum/rgblight.c ****     }
 543:quantum/rgblight.c ****   } else {
 544:quantum/rgblight.c ****     pos = (pos + 1) % RGBLED_NUM;
 545:quantum/rgblight.c ****   }
 546:quantum/rgblight.c **** }
 2529               		.loc 1 546 1 view .LVU630
 2530 00dc DF91      		pop r29
 2531 00de CF91      		pop r28
 2532 00e0 1F91      		pop r17
 2533               	.LVL164:
 2534               		.loc 1 546 1 view .LVU631
 2535 00e2 0F91      		pop r16
 2536 00e4 FF90      		pop r15
 2537 00e6 EF90      		pop r14
 2538 00e8 DF90      		pop r13
 2539 00ea CF90      		pop r12
 2540 00ec BF90      		pop r11
 2541 00ee AF90      		pop r10
 2542 00f0 0895      		ret
 2543               	.LVL165:
 2544               	.L95:
 2545               		.loc 1 546 1 view .LVU632
 2546 00f2 CC24      		clr r12
 2547 00f4 C394      		inc r12
 2548 00f6 D12C      		mov r13,__zero_reg__
 2549               	.LVL166:
 2550               		.loc 1 546 1 view .LVU633
 2551 00f8 00C0      		rjmp .L91
 2552               	.LVL167:
 2553               	.L93:
 541:quantum/rgblight.c ****     }
 2554               		.loc 1 541 7 is_stmt 1 view .LVU634
 541:quantum/rgblight.c ****     }
 2555               		.loc 1 541 11 is_stmt 0 view .LVU635
 2556 00fa 8150      		subi r24,lo8(-(-1))
 2557               	.L97:
 544:quantum/rgblight.c ****   }
 2558               		.loc 1 544 9 view .LVU636
 2559 00fc 8093 0000 		sts pos.2211,r24
 2560 0100 00C0      		rjmp .L85
 2561               	.L92:
 544:quantum/rgblight.c ****   }
 2562               		.loc 1 544 5 is_stmt 1 view .LVU637
 544:quantum/rgblight.c ****   }
 2563               		.loc 1 544 16 is_stmt 0 view .LVU638
 2564 0102 90E0      		ldi r25,0
 2565 0104 0196      		adiw r24,1
 544:quantum/rgblight.c ****   }
 2566               		.loc 1 544 21 view .LVU639
 2567 0106 8170      		andi r24,1
 2568 0108 9927      		clr r25
 2569 010a 00C0      		rjmp .L97
 2570               		.cfi_endproc
 2571               	.LFE40:
 2573               		.section	.text.rgblight_effect_knight,"ax",@progbits
 2574               	.global	rgblight_effect_knight
 2576               	rgblight_effect_knight:
 2577               	.LVL168:
 2578               	.LFB41:
 547:quantum/rgblight.c **** void rgblight_effect_knight(uint8_t interval) {
 2579               		.loc 1 547 47 is_stmt 1 view -0
 2580               		.cfi_startproc
 2581               		.loc 1 547 47 is_stmt 0 view .LVU641
 2582 0000 FF92      		push r15
 2583               	.LCFI60:
 2584               		.cfi_def_cfa_offset 3
 2585               		.cfi_offset 15, -2
 2586 0002 0F93      		push r16
 2587               	.LCFI61:
 2588               		.cfi_def_cfa_offset 4
 2589               		.cfi_offset 16, -3
 2590 0004 1F93      		push r17
 2591               	.LCFI62:
 2592               		.cfi_def_cfa_offset 5
 2593               		.cfi_offset 17, -4
 2594 0006 CF93      		push r28
 2595               	.LCFI63:
 2596               		.cfi_def_cfa_offset 6
 2597               		.cfi_offset 28, -5
 2598 0008 DF93      		push r29
 2599               	.LCFI64:
 2600               		.cfi_def_cfa_offset 7
 2601               		.cfi_offset 29, -6
 2602 000a 00D0      		rcall .
 2603 000c 00D0      		rcall .
 2604 000e 00D0      		rcall .
 2605               	.LCFI65:
 2606               		.cfi_def_cfa_offset 13
 2607 0010 CDB7      		in r28,__SP_L__
 2608 0012 DEB7      		in r29,__SP_H__
 2609               	.LCFI66:
 2610               		.cfi_def_cfa_register 28
 2611               	/* prologue: function */
 2612               	/* frame size = 6 */
 2613               	/* stack size = 11 */
 2614               	.L__stack_usage = 11
 2615 0014 182F      		mov r17,r24
 548:quantum/rgblight.c ****   static int8_t pos = 0;
 2616               		.loc 1 548 3 is_stmt 1 view .LVU642
 549:quantum/rgblight.c ****   static uint16_t last_timer = 0;
 2617               		.loc 1 549 3 view .LVU643
 550:quantum/rgblight.c ****   uint8_t i, j, cur;
 2618               		.loc 1 550 3 view .LVU644
 551:quantum/rgblight.c ****   int8_t k;
 2619               		.loc 1 551 3 view .LVU645
 552:quantum/rgblight.c ****   LED_TYPE preled[RGBLED_NUM];
 2620               		.loc 1 552 3 view .LVU646
 553:quantum/rgblight.c ****   static int8_t increment = -1;
 2621               		.loc 1 553 3 view .LVU647
 554:quantum/rgblight.c ****   if (timer_elapsed(last_timer) < pgm_read_byte(&RGBLED_KNIGHT_INTERVALS[interval])) {
 2622               		.loc 1 554 3 view .LVU648
 2623               		.loc 1 554 7 is_stmt 0 view .LVU649
 2624 0016 8091 0000 		lds r24,last_timer.2230
 2625 001a 9091 0000 		lds r25,last_timer.2230+1
 2626               	.LVL169:
 2627               		.loc 1 554 7 view .LVU650
 2628 001e 0E94 0000 		call timer_elapsed
 2629               	.LVL170:
 2630               	.LBB46:
 2631               		.loc 1 554 35 is_stmt 1 view .LVU651
 2632               		.loc 1 554 35 view .LVU652
 2633               		.loc 1 554 35 view .LVU653
 2634 0022 E12F      		mov r30,r17
 2635 0024 F0E0      		ldi r31,0
 2636 0026 E050      		subi r30,lo8(-(RGBLED_KNIGHT_INTERVALS))
 2637 0028 F040      		sbci r31,hi8(-(RGBLED_KNIGHT_INTERVALS))
 2638               	/* #APP */
 2639               	 ;  554 "quantum/rgblight.c" 1
 2640 002a E491      		lpm r30, Z
 2641               		
 2642               	 ;  0 "" 2
 2643               	.LVL171:
 2644               		.loc 1 554 35 view .LVU654
 2645               	/* #NOAPP */
 2646               	.LBE46:
 2647               		.loc 1 554 6 is_stmt 0 view .LVU655
 2648 002c E817      		cp r30,r24
 2649 002e 1906      		cpc __zero_reg__,r25
 2650 0030 01F0      		breq .+4
 2651 0032 00F0      		brlo .+2
 2652 0034 00C0      		rjmp .L98
 555:quantum/rgblight.c ****     return;
 556:quantum/rgblight.c ****   }
 557:quantum/rgblight.c ****   last_timer = timer_read();
 2653               		.loc 1 557 3 is_stmt 1 view .LVU656
 2654               		.loc 1 557 16 is_stmt 0 view .LVU657
 2655 0036 0E94 0000 		call timer_read
 2656               	.LVL172:
 2657               		.loc 1 557 14 view .LVU658
 2658 003a 9093 0000 		sts last_timer.2230+1,r25
 2659 003e 8093 0000 		sts last_timer.2230,r24
 558:quantum/rgblight.c ****   for (i = 0; i < RGBLED_NUM; i++) {
 2660               		.loc 1 558 3 is_stmt 1 view .LVU659
 2661               	.LVL173:
 2662               		.loc 1 558 15 view .LVU660
 559:quantum/rgblight.c ****     preled[i].r = 0;
 2663               		.loc 1 559 5 view .LVU661
 2664               		.loc 1 559 17 is_stmt 0 view .LVU662
 2665 0042 1A82      		std Y+2,__zero_reg__
 560:quantum/rgblight.c ****     preled[i].g = 0;
 2666               		.loc 1 560 5 is_stmt 1 view .LVU663
 2667               		.loc 1 560 17 is_stmt 0 view .LVU664
 2668 0044 1982      		std Y+1,__zero_reg__
 561:quantum/rgblight.c ****     preled[i].b = 0;
 2669               		.loc 1 561 5 is_stmt 1 view .LVU665
 2670               		.loc 1 561 17 is_stmt 0 view .LVU666
 2671 0046 1B82      		std Y+3,__zero_reg__
 562:quantum/rgblight.c ****     for (j = 0; j < RGBLIGHT_EFFECT_KNIGHT_LENGTH; j++) {
 2672               		.loc 1 562 5 is_stmt 1 view .LVU667
 2673               	.LVL174:
 2674               		.loc 1 562 17 view .LVU668
 2675               		.loc 1 562 12 is_stmt 0 view .LVU669
 2676 0048 10E0      		ldi r17,0
 2677               	.LVL175:
 2678               	.L101:
 563:quantum/rgblight.c ****       k = pos + j * increment;
 2679               		.loc 1 563 7 is_stmt 1 view .LVU670
 2680               		.loc 1 563 15 is_stmt 0 view .LVU671
 2681 004a F090 0000 		lds r15,increment.2236
 2682 004e 0091 0000 		lds r16,pos.2229
 2683               	.LVL176:
 564:quantum/rgblight.c ****       if (k < 0) {
 2684               		.loc 1 564 7 is_stmt 1 view .LVU672
 565:quantum/rgblight.c ****         k = 0;
 566:quantum/rgblight.c ****       }
 567:quantum/rgblight.c ****       if (k >= RGBLED_NUM) {
 568:quantum/rgblight.c ****         k = RGBLED_NUM - 1;
 569:quantum/rgblight.c ****       }
 570:quantum/rgblight.c ****       if (i == k) {
 2685               		.loc 1 570 7 view .LVU673
 563:quantum/rgblight.c ****       if (k < 0) {
 2686               		.loc 1 563 15 is_stmt 0 view .LVU674
 2687 0052 802F      		mov r24,r16
 2688 0054 F19E      		mul r15,r17
 2689 0056 800D      		add r24,r0
 2690 0058 1124      		clr __zero_reg__
 2691               		.loc 1 570 10 view .LVU675
 2692 005a 1816      		cp __zero_reg__,r24
 2693 005c 04F0      		brlt .L100
 571:quantum/rgblight.c ****         sethsv(rgblight_config.hue, rgblight_config.sat, rgblight_config.val, (LED_TYPE *)&preled[i
 2694               		.loc 1 571 9 is_stmt 1 view .LVU676
 2695               		.loc 1 571 31 is_stmt 0 view .LVU677
 2696 005e 8091 0000 		lds r24,rgblight_config
 2697 0062 881F      		rol r24
 2698 0064 8827      		clr r24
 2699 0066 881F      		rol r24
 2700 0068 9091 0000 		lds r25,rgblight_config+1
 2701 006c 592F      		mov r21,r25
 2702 006e 550F      		lsl r21
 2703 0070 97FB      		bst r25,7
 2704 0072 9927      		clr r25
 2705 0074 90F9      		bld r25,0
 2706               		.loc 1 571 9 view .LVU678
 2707 0076 9E01      		movw r18,r28
 2708 0078 2F5F      		subi r18,-1
 2709 007a 3F4F      		sbci r19,-1
 2710 007c 4091 0000 		lds r20,rgblight_config+3
 2711 0080 6091 0000 		lds r22,rgblight_config+2
 2712 0084 852B      		or r24,r21
 2713 0086 0E94 0000 		call sethsv
 2714               	.LVL177:
 2715               	.L100:
 562:quantum/rgblight.c ****       k = pos + j * increment;
 2716               		.loc 1 562 52 is_stmt 1 view .LVU679
 562:quantum/rgblight.c ****       k = pos + j * increment;
 2717               		.loc 1 562 53 is_stmt 0 view .LVU680
 2718 008a 1F5F      		subi r17,lo8(-(1))
 2719               	.LVL178:
 562:quantum/rgblight.c ****       k = pos + j * increment;
 2720               		.loc 1 562 17 is_stmt 1 view .LVU681
 562:quantum/rgblight.c ****       k = pos + j * increment;
 2721               		.loc 1 562 5 is_stmt 0 view .LVU682
 2722 008c 1730      		cpi r17,lo8(7)
 2723 008e 01F4      		brne .L101
 558:quantum/rgblight.c ****     preled[i].r = 0;
 2724               		.loc 1 558 31 is_stmt 1 view .LVU683
 2725               	.LVL179:
 558:quantum/rgblight.c ****     preled[i].r = 0;
 2726               		.loc 1 558 15 view .LVU684
 559:quantum/rgblight.c ****     preled[i].g = 0;
 2727               		.loc 1 559 5 view .LVU685
 559:quantum/rgblight.c ****     preled[i].g = 0;
 2728               		.loc 1 559 17 is_stmt 0 view .LVU686
 2729 0090 1D82      		std Y+5,__zero_reg__
 560:quantum/rgblight.c ****     preled[i].b = 0;
 2730               		.loc 1 560 5 is_stmt 1 view .LVU687
 560:quantum/rgblight.c ****     preled[i].b = 0;
 2731               		.loc 1 560 17 is_stmt 0 view .LVU688
 2732 0092 1C82      		std Y+4,__zero_reg__
 561:quantum/rgblight.c ****     for (j = 0; j < RGBLIGHT_EFFECT_KNIGHT_LENGTH; j++) {
 2733               		.loc 1 561 5 is_stmt 1 view .LVU689
 561:quantum/rgblight.c ****     for (j = 0; j < RGBLIGHT_EFFECT_KNIGHT_LENGTH; j++) {
 2734               		.loc 1 561 17 is_stmt 0 view .LVU690
 2735 0094 1E82      		std Y+6,__zero_reg__
 562:quantum/rgblight.c ****       k = pos + j * increment;
 2736               		.loc 1 562 5 is_stmt 1 view .LVU691
 2737               	.LVL180:
 562:quantum/rgblight.c ****       k = pos + j * increment;
 2738               		.loc 1 562 17 view .LVU692
 562:quantum/rgblight.c ****       k = pos + j * increment;
 2739               		.loc 1 562 12 is_stmt 0 view .LVU693
 2740 0096 10E0      		ldi r17,0
 2741               	.LVL181:
 2742               	.L103:
 563:quantum/rgblight.c ****       if (k < 0) {
 2743               		.loc 1 563 7 is_stmt 1 view .LVU694
 564:quantum/rgblight.c ****         k = 0;
 2744               		.loc 1 564 7 view .LVU695
 570:quantum/rgblight.c ****         sethsv(rgblight_config.hue, rgblight_config.sat, rgblight_config.val, (LED_TYPE *)&preled[i
 2745               		.loc 1 570 7 view .LVU696
 563:quantum/rgblight.c ****       if (k < 0) {
 2746               		.loc 1 563 15 is_stmt 0 view .LVU697
 2747 0098 802F      		mov r24,r16
 2748 009a F19E      		mul r15,r17
 2749 009c 800D      		add r24,r0
 2750 009e 1124      		clr __zero_reg__
 570:quantum/rgblight.c ****         sethsv(rgblight_config.hue, rgblight_config.sat, rgblight_config.val, (LED_TYPE *)&preled[i
 2751               		.loc 1 570 10 view .LVU698
 2752 00a0 1816      		cp __zero_reg__,r24
 2753 00a2 04F4      		brge .L102
 2754               		.loc 1 571 9 is_stmt 1 view .LVU699
 2755               		.loc 1 571 31 is_stmt 0 view .LVU700
 2756 00a4 8091 0000 		lds r24,rgblight_config
 2757 00a8 881F      		rol r24
 2758 00aa 8827      		clr r24
 2759 00ac 881F      		rol r24
 2760 00ae 9091 0000 		lds r25,rgblight_config+1
 2761 00b2 592F      		mov r21,r25
 2762 00b4 550F      		lsl r21
 2763 00b6 97FB      		bst r25,7
 2764 00b8 9927      		clr r25
 2765 00ba 90F9      		bld r25,0
 2766               		.loc 1 571 9 view .LVU701
 2767 00bc 9E01      		movw r18,r28
 2768 00be 2C5F      		subi r18,-4
 2769 00c0 3F4F      		sbci r19,-1
 2770 00c2 4091 0000 		lds r20,rgblight_config+3
 2771 00c6 6091 0000 		lds r22,rgblight_config+2
 2772 00ca 852B      		or r24,r21
 2773 00cc 0E94 0000 		call sethsv
 2774               	.LVL182:
 2775               	.L102:
 562:quantum/rgblight.c ****       k = pos + j * increment;
 2776               		.loc 1 562 52 is_stmt 1 discriminator 2 view .LVU702
 562:quantum/rgblight.c ****       k = pos + j * increment;
 2777               		.loc 1 562 53 is_stmt 0 discriminator 2 view .LVU703
 2778 00d0 1F5F      		subi r17,lo8(-(1))
 2779               	.LVL183:
 562:quantum/rgblight.c ****       k = pos + j * increment;
 2780               		.loc 1 562 17 is_stmt 1 discriminator 2 view .LVU704
 562:quantum/rgblight.c ****       k = pos + j * increment;
 2781               		.loc 1 562 5 is_stmt 0 discriminator 2 view .LVU705
 2782 00d2 1730      		cpi r17,lo8(7)
 2783 00d4 01F4      		brne .L103
 558:quantum/rgblight.c ****     preled[i].r = 0;
 2784               		.loc 1 558 31 is_stmt 1 discriminator 2 view .LVU706
 2785               	.LVL184:
 558:quantum/rgblight.c ****     preled[i].r = 0;
 2786               		.loc 1 558 15 discriminator 2 view .LVU707
 572:quantum/rgblight.c ****       }
 573:quantum/rgblight.c ****     }
 574:quantum/rgblight.c ****   }
 575:quantum/rgblight.c ****   if (RGBLIGHT_EFFECT_KNIGHT_OFFSET) {
 576:quantum/rgblight.c ****     for (i = 0; i < RGBLED_NUM; i++) {
 2787               		.loc 1 576 17 discriminator 2 view .LVU708
 577:quantum/rgblight.c ****       cur = (i + RGBLIGHT_EFFECT_KNIGHT_OFFSET) % RGBLED_NUM;
 2788               		.loc 1 577 7 discriminator 2 view .LVU709
 578:quantum/rgblight.c ****       led[i].r = preled[cur].r;
 2789               		.loc 1 578 7 discriminator 2 view .LVU710
 2790               		.loc 1 578 16 is_stmt 0 discriminator 2 view .LVU711
 2791 00d6 8D81      		ldd r24,Y+5
 2792 00d8 8093 0000 		sts led+1,r24
 579:quantum/rgblight.c ****       led[i].g = preled[cur].g;
 2793               		.loc 1 579 7 is_stmt 1 discriminator 2 view .LVU712
 2794               		.loc 1 579 16 is_stmt 0 discriminator 2 view .LVU713
 2795 00dc 8C81      		ldd r24,Y+4
 2796 00de 8093 0000 		sts led,r24
 580:quantum/rgblight.c ****       led[i].b = preled[cur].b;
 2797               		.loc 1 580 7 is_stmt 1 discriminator 2 view .LVU714
 2798               		.loc 1 580 16 is_stmt 0 discriminator 2 view .LVU715
 2799 00e2 8E81      		ldd r24,Y+6
 2800 00e4 8093 0000 		sts led+2,r24
 576:quantum/rgblight.c ****       cur = (i + RGBLIGHT_EFFECT_KNIGHT_OFFSET) % RGBLED_NUM;
 2801               		.loc 1 576 33 is_stmt 1 discriminator 2 view .LVU716
 2802               	.LVL185:
 576:quantum/rgblight.c ****       cur = (i + RGBLIGHT_EFFECT_KNIGHT_OFFSET) % RGBLED_NUM;
 2803               		.loc 1 576 17 discriminator 2 view .LVU717
 577:quantum/rgblight.c ****       led[i].r = preled[cur].r;
 2804               		.loc 1 577 7 discriminator 2 view .LVU718
 578:quantum/rgblight.c ****       led[i].g = preled[cur].g;
 2805               		.loc 1 578 7 discriminator 2 view .LVU719
 578:quantum/rgblight.c ****       led[i].g = preled[cur].g;
 2806               		.loc 1 578 16 is_stmt 0 discriminator 2 view .LVU720
 2807 00e8 8A81      		ldd r24,Y+2
 2808 00ea 8093 0000 		sts led+4,r24
 579:quantum/rgblight.c ****       led[i].b = preled[cur].b;
 2809               		.loc 1 579 7 is_stmt 1 discriminator 2 view .LVU721
 579:quantum/rgblight.c ****       led[i].b = preled[cur].b;
 2810               		.loc 1 579 16 is_stmt 0 discriminator 2 view .LVU722
 2811 00ee 8981      		ldd r24,Y+1
 2812 00f0 8093 0000 		sts led+3,r24
 2813               		.loc 1 580 7 is_stmt 1 discriminator 2 view .LVU723
 2814               		.loc 1 580 16 is_stmt 0 discriminator 2 view .LVU724
 2815 00f4 8B81      		ldd r24,Y+3
 2816 00f6 8093 0000 		sts led+5,r24
 576:quantum/rgblight.c ****       cur = (i + RGBLIGHT_EFFECT_KNIGHT_OFFSET) % RGBLED_NUM;
 2817               		.loc 1 576 33 is_stmt 1 discriminator 2 view .LVU725
 2818               	.LVL186:
 576:quantum/rgblight.c ****       cur = (i + RGBLIGHT_EFFECT_KNIGHT_OFFSET) % RGBLED_NUM;
 2819               		.loc 1 576 17 discriminator 2 view .LVU726
 581:quantum/rgblight.c ****     }
 582:quantum/rgblight.c ****   }
 583:quantum/rgblight.c ****   rgblight_set();
 2820               		.loc 1 583 3 discriminator 2 view .LVU727
 2821 00fa 0E94 0000 		call rgblight_set
 2822               	.LVL187:
 584:quantum/rgblight.c ****   if (increment == 1) {
 2823               		.loc 1 584 3 discriminator 2 view .LVU728
 2824               		.loc 1 584 6 is_stmt 0 discriminator 2 view .LVU729
 2825 00fe 9091 0000 		lds r25,increment.2236
 2826 0102 8091 0000 		lds r24,pos.2229
 2827 0106 9130      		cpi r25,lo8(1)
 2828 0108 01F4      		brne .L104
 585:quantum/rgblight.c ****     if (pos - 1 < 0 - RGBLIGHT_EFFECT_KNIGHT_LENGTH) {
 2829               		.loc 1 585 5 is_stmt 1 view .LVU730
 2830               		.loc 1 585 8 is_stmt 0 view .LVU731
 2831 010a 8A3F      		cpi r24,lo8(-6)
 2832 010c 04F4      		brge .L105
 586:quantum/rgblight.c ****       pos = 0 - RGBLIGHT_EFFECT_KNIGHT_LENGTH;
 2833               		.loc 1 586 7 is_stmt 1 view .LVU732
 2834               		.loc 1 586 11 is_stmt 0 view .LVU733
 2835 010e 89EF      		ldi r24,lo8(-7)
 2836 0110 8093 0000 		sts pos.2229,r24
 587:quantum/rgblight.c ****       increment = -1;
 2837               		.loc 1 587 7 is_stmt 1 view .LVU734
 2838               		.loc 1 587 17 is_stmt 0 view .LVU735
 2839 0114 8FEF      		ldi r24,lo8(-1)
 2840               	.L110:
 588:quantum/rgblight.c ****     } else {
 589:quantum/rgblight.c ****       pos -= 1;
 590:quantum/rgblight.c ****     }
 591:quantum/rgblight.c ****   } else {
 592:quantum/rgblight.c ****     if (pos + 1 > RGBLED_NUM + RGBLIGHT_EFFECT_KNIGHT_LENGTH) {
 593:quantum/rgblight.c ****       pos = RGBLED_NUM + RGBLIGHT_EFFECT_KNIGHT_LENGTH - 1;
 594:quantum/rgblight.c ****       increment = 1;
 2841               		.loc 1 594 17 view .LVU736
 2842 0116 8093 0000 		sts increment.2236,r24
 2843               	.LVL188:
 2844               	.L98:
 2845               	/* epilogue start */
 595:quantum/rgblight.c ****     } else {
 596:quantum/rgblight.c ****       pos += 1;
 597:quantum/rgblight.c ****     }
 598:quantum/rgblight.c ****   }
 599:quantum/rgblight.c **** }
 2846               		.loc 1 599 1 view .LVU737
 2847 011a 2696      		adiw r28,6
 2848 011c 0FB6      		in __tmp_reg__,__SREG__
 2849 011e F894      		cli
 2850 0120 DEBF      		out __SP_H__,r29
 2851 0122 0FBE      		out __SREG__,__tmp_reg__
 2852 0124 CDBF      		out __SP_L__,r28
 2853 0126 DF91      		pop r29
 2854 0128 CF91      		pop r28
 2855 012a 1F91      		pop r17
 2856 012c 0F91      		pop r16
 2857 012e FF90      		pop r15
 2858 0130 0895      		ret
 2859               	.LVL189:
 2860               	.L105:
 589:quantum/rgblight.c ****     }
 2861               		.loc 1 589 7 is_stmt 1 view .LVU738
 589:quantum/rgblight.c ****     }
 2862               		.loc 1 589 11 is_stmt 0 view .LVU739
 2863 0132 8150      		subi r24,lo8(-(-1))
 2864               	.L111:
 596:quantum/rgblight.c ****     }
 2865               		.loc 1 596 11 view .LVU740
 2866 0134 8093 0000 		sts pos.2229,r24
 2867 0138 00C0      		rjmp .L98
 2868               	.L104:
 592:quantum/rgblight.c ****       pos = RGBLED_NUM + RGBLIGHT_EFFECT_KNIGHT_LENGTH - 1;
 2869               		.loc 1 592 5 is_stmt 1 view .LVU741
 592:quantum/rgblight.c ****       pos = RGBLED_NUM + RGBLIGHT_EFFECT_KNIGHT_LENGTH - 1;
 2870               		.loc 1 592 8 is_stmt 0 view .LVU742
 2871 013a 8930      		cpi r24,lo8(9)
 2872 013c 04F0      		brlt .L107
 593:quantum/rgblight.c ****       increment = 1;
 2873               		.loc 1 593 7 is_stmt 1 view .LVU743
 593:quantum/rgblight.c ****       increment = 1;
 2874               		.loc 1 593 11 is_stmt 0 view .LVU744
 2875 013e 88E0      		ldi r24,lo8(8)
 2876 0140 8093 0000 		sts pos.2229,r24
 594:quantum/rgblight.c ****     } else {
 2877               		.loc 1 594 7 is_stmt 1 view .LVU745
 594:quantum/rgblight.c ****     } else {
 2878               		.loc 1 594 17 is_stmt 0 view .LVU746
 2879 0144 81E0      		ldi r24,lo8(1)
 2880 0146 00C0      		rjmp .L110
 2881               	.L107:
 596:quantum/rgblight.c ****     }
 2882               		.loc 1 596 7 is_stmt 1 view .LVU747
 596:quantum/rgblight.c ****     }
 2883               		.loc 1 596 11 is_stmt 0 view .LVU748
 2884 0148 8F5F      		subi r24,lo8(-(1))
 2885 014a 00C0      		rjmp .L111
 2886               		.cfi_endproc
 2887               	.LFE41:
 2889               		.section	.text.rgblight_effect_christmas,"ax",@progbits
 2890               	.global	rgblight_effect_christmas
 2892               	rgblight_effect_christmas:
 2893               	.LFB42:
 600:quantum/rgblight.c **** 
 601:quantum/rgblight.c **** 
 602:quantum/rgblight.c **** void rgblight_effect_christmas(void) {
 2894               		.loc 1 602 38 is_stmt 1 view -0
 2895               		.cfi_startproc
 2896               	/* prologue: function */
 2897               	/* frame size = 0 */
 2898               	/* stack size = 0 */
 2899               	.L__stack_usage = 0
 603:quantum/rgblight.c ****   static uint16_t current_offset = 0;
 2900               		.loc 1 603 3 view .LVU750
 604:quantum/rgblight.c ****   static uint16_t last_timer = 0;
 2901               		.loc 1 604 3 view .LVU751
 605:quantum/rgblight.c ****   uint16_t hue;
 2902               		.loc 1 605 3 view .LVU752
 606:quantum/rgblight.c ****   uint8_t i;
 2903               		.loc 1 606 3 view .LVU753
 607:quantum/rgblight.c ****   if (timer_elapsed(last_timer) < 1000) {
 2904               		.loc 1 607 3 view .LVU754
 2905               		.loc 1 607 7 is_stmt 0 view .LVU755
 2906 0000 8091 0000 		lds r24,last_timer.2253
 2907 0004 9091 0000 		lds r25,last_timer.2253+1
 2908 0008 0E94 0000 		call timer_elapsed
 2909               	.LVL190:
 2910               		.loc 1 607 6 view .LVU756
 2911 000c 883E      		cpi r24,-24
 2912 000e 9340      		sbci r25,3
 2913 0010 00F0      		brlo .L112
 608:quantum/rgblight.c ****     return;
 609:quantum/rgblight.c ****   }
 610:quantum/rgblight.c ****   last_timer = timer_read();
 2914               		.loc 1 610 3 is_stmt 1 view .LVU757
 2915               		.loc 1 610 16 is_stmt 0 view .LVU758
 2916 0012 0E94 0000 		call timer_read
 2917               	.LVL191:
 2918               		.loc 1 610 14 view .LVU759
 2919 0016 9093 0000 		sts last_timer.2253+1,r25
 2920 001a 8093 0000 		sts last_timer.2253,r24
 611:quantum/rgblight.c ****   current_offset = (current_offset + 1) % 2;
 2921               		.loc 1 611 3 is_stmt 1 view .LVU760
 2922               		.loc 1 611 36 is_stmt 0 view .LVU761
 2923 001e 8091 0000 		lds r24,current_offset.2252
 2924 0022 9091 0000 		lds r25,current_offset.2252+1
 2925 0026 0196      		adiw r24,1
 2926               		.loc 1 611 41 view .LVU762
 2927 0028 8170      		andi r24,1
 2928 002a 9927      		clr r25
 2929               		.loc 1 611 18 view .LVU763
 2930 002c 9093 0000 		sts current_offset.2252+1,r25
 2931 0030 8093 0000 		sts current_offset.2252,r24
 612:quantum/rgblight.c ****   for (i = 0; i < RGBLED_NUM; i++) {
 2932               		.loc 1 612 3 is_stmt 1 view .LVU764
 2933               	.LVL192:
 2934               		.loc 1 612 15 view .LVU765
 613:quantum/rgblight.c ****     hue = 0 + ((RGBLED_NUM * (i + current_offset)) % 2) * 80;
 2935               		.loc 1 613 5 view .LVU766
 614:quantum/rgblight.c ****     sethsv(hue, rgblight_config.sat, rgblight_config.val, (LED_TYPE *)&led[i]);
 2936               		.loc 1 614 5 view .LVU767
 2937 0034 20E0      		ldi r18,lo8(led)
 2938 0036 30E0      		ldi r19,hi8(led)
 2939 0038 4091 0000 		lds r20,rgblight_config+3
 2940 003c 6091 0000 		lds r22,rgblight_config+2
 2941 0040 90E0      		ldi r25,0
 2942 0042 80E0      		ldi r24,0
 2943 0044 0E94 0000 		call sethsv
 2944               	.LVL193:
 612:quantum/rgblight.c ****   for (i = 0; i < RGBLED_NUM; i++) {
 2945               		.loc 1 612 31 view .LVU768
 612:quantum/rgblight.c ****   for (i = 0; i < RGBLED_NUM; i++) {
 2946               		.loc 1 612 15 view .LVU769
 613:quantum/rgblight.c ****     hue = 0 + ((RGBLED_NUM * (i + current_offset)) % 2) * 80;
 2947               		.loc 1 613 5 view .LVU770
 2948               		.loc 1 614 5 view .LVU771
 2949 0048 20E0      		ldi r18,lo8(led+3)
 2950 004a 30E0      		ldi r19,hi8(led+3)
 2951 004c 4091 0000 		lds r20,rgblight_config+3
 2952 0050 6091 0000 		lds r22,rgblight_config+2
 2953 0054 90E0      		ldi r25,0
 2954 0056 80E0      		ldi r24,0
 2955 0058 0E94 0000 		call sethsv
 2956               	.LVL194:
 612:quantum/rgblight.c ****   for (i = 0; i < RGBLED_NUM; i++) {
 2957               		.loc 1 612 31 view .LVU772
 612:quantum/rgblight.c ****   for (i = 0; i < RGBLED_NUM; i++) {
 2958               		.loc 1 612 15 view .LVU773
 615:quantum/rgblight.c ****   }
 616:quantum/rgblight.c ****   rgblight_set();
 2959               		.loc 1 616 3 view .LVU774
 2960 005c 0C94 0000 		jmp rgblight_set
 2961               	.LVL195:
 2962               	.L112:
 2963               	/* epilogue start */
 617:quantum/rgblight.c **** }
 2964               		.loc 1 617 1 is_stmt 0 view .LVU775
 2965 0060 0895      		ret
 2966               		.cfi_endproc
 2967               	.LFE42:
 2969               		.section	.text.rgblight_task,"ax",@progbits
 2970               	.global	rgblight_task
 2972               	rgblight_task:
 2973               	.LFB36:
 435:quantum/rgblight.c ****   if (rgblight_timer_enabled) {
 2974               		.loc 1 435 26 is_stmt 1 view -0
 2975               		.cfi_startproc
 2976               	/* prologue: function */
 2977               	/* frame size = 0 */
 2978               	/* stack size = 0 */
 2979               	.L__stack_usage = 0
 436:quantum/rgblight.c ****     // mode = 1, static light, do nothing here
 2980               		.loc 1 436 3 view .LVU777
 436:quantum/rgblight.c ****     // mode = 1, static light, do nothing here
 2981               		.loc 1 436 6 is_stmt 0 view .LVU778
 2982 0000 8091 0000 		lds r24,rgblight_timer_enabled
 2983 0004 8823      		tst r24
 2984 0006 01F0      		breq .L114
 438:quantum/rgblight.c ****       // mode = 2 to 5, breathing mode
 2985               		.loc 1 438 5 is_stmt 1 view .LVU779
 438:quantum/rgblight.c ****       // mode = 2 to 5, breathing mode
 2986               		.loc 1 438 24 is_stmt 0 view .LVU780
 2987 0008 8091 0000 		lds r24,rgblight_config
 2988 000c 8695      		lsr r24
 2989 000e 8F73      		andi r24,lo8(63)
 438:quantum/rgblight.c ****       // mode = 2 to 5, breathing mode
 2990               		.loc 1 438 35 view .LVU781
 2991 0010 9EE3      		ldi r25,lo8(62)
 2992 0012 980F      		add r25,r24
 2993 0014 9F73      		andi r25,lo8(63)
 438:quantum/rgblight.c ****       // mode = 2 to 5, breathing mode
 2994               		.loc 1 438 8 view .LVU782
 2995 0016 9430      		cpi r25,lo8(4)
 2996 0018 00F4      		brsh .L116
 440:quantum/rgblight.c ****     } else if (rgblight_config.mode >= 6 && rgblight_config.mode <= 8) {
 2997               		.loc 1 440 7 is_stmt 1 view .LVU783
 2998 001a 8250      		subi r24,lo8(-(-2))
 2999 001c 0C94 0000 		jmp rgblight_effect_breathing
 3000               	.LVL196:
 3001               	.L116:
 441:quantum/rgblight.c ****       // mode = 6 to 8, rainbow mood mod
 3002               		.loc 1 441 12 view .LVU784
 441:quantum/rgblight.c ****       // mode = 6 to 8, rainbow mood mod
 3003               		.loc 1 441 42 is_stmt 0 view .LVU785
 3004 0020 9AE3      		ldi r25,lo8(58)
 3005 0022 980F      		add r25,r24
 3006 0024 9F73      		andi r25,lo8(63)
 441:quantum/rgblight.c ****       // mode = 6 to 8, rainbow mood mod
 3007               		.loc 1 441 15 view .LVU786
 3008 0026 9330      		cpi r25,lo8(3)
 3009 0028 00F4      		brsh .L117
 443:quantum/rgblight.c ****     } else if (rgblight_config.mode >= 9 && rgblight_config.mode <= 14) {
 3010               		.loc 1 443 7 is_stmt 1 view .LVU787
 3011 002a 8650      		subi r24,lo8(-(-6))
 3012 002c 0C94 0000 		jmp rgblight_effect_rainbow_mood
 3013               	.LVL197:
 3014               	.L117:
 444:quantum/rgblight.c ****       // mode = 9 to 14, rainbow swirl mode
 3015               		.loc 1 444 12 view .LVU788
 444:quantum/rgblight.c ****       // mode = 9 to 14, rainbow swirl mode
 3016               		.loc 1 444 42 is_stmt 0 view .LVU789
 3017 0030 97E3      		ldi r25,lo8(55)
 3018 0032 980F      		add r25,r24
 3019 0034 9F73      		andi r25,lo8(63)
 444:quantum/rgblight.c ****       // mode = 9 to 14, rainbow swirl mode
 3020               		.loc 1 444 15 view .LVU790
 3021 0036 9630      		cpi r25,lo8(6)
 3022 0038 00F4      		brsh .L118
 446:quantum/rgblight.c ****     } else if (rgblight_config.mode >= 15 && rgblight_config.mode <= 20) {
 3023               		.loc 1 446 7 is_stmt 1 view .LVU791
 3024 003a 8950      		subi r24,lo8(-(-9))
 3025 003c 0C94 0000 		jmp rgblight_effect_rainbow_swirl
 3026               	.LVL198:
 3027               	.L118:
 447:quantum/rgblight.c ****       // mode = 15 to 20, snake mode
 3028               		.loc 1 447 12 view .LVU792
 447:quantum/rgblight.c ****       // mode = 15 to 20, snake mode
 3029               		.loc 1 447 43 is_stmt 0 view .LVU793
 3030 0040 91E3      		ldi r25,lo8(49)
 3031 0042 980F      		add r25,r24
 3032 0044 9F73      		andi r25,lo8(63)
 447:quantum/rgblight.c ****       // mode = 15 to 20, snake mode
 3033               		.loc 1 447 15 view .LVU794
 3034 0046 9630      		cpi r25,lo8(6)
 3035 0048 00F4      		brsh .L119
 449:quantum/rgblight.c ****     } else if (rgblight_config.mode >= 21 && rgblight_config.mode <= 23) {
 3036               		.loc 1 449 7 is_stmt 1 view .LVU795
 3037 004a 8F50      		subi r24,lo8(-(-15))
 3038 004c 0C94 0000 		jmp rgblight_effect_snake
 3039               	.LVL199:
 3040               	.L119:
 450:quantum/rgblight.c ****       // mode = 21 to 23, knight mode
 3041               		.loc 1 450 12 view .LVU796
 450:quantum/rgblight.c ****       // mode = 21 to 23, knight mode
 3042               		.loc 1 450 43 is_stmt 0 view .LVU797
 3043 0050 9BE2      		ldi r25,lo8(43)
 3044 0052 980F      		add r25,r24
 3045 0054 9F73      		andi r25,lo8(63)
 450:quantum/rgblight.c ****       // mode = 21 to 23, knight mode
 3046               		.loc 1 450 15 view .LVU798
 3047 0056 9330      		cpi r25,lo8(3)
 3048 0058 00F4      		brsh .L120
 452:quantum/rgblight.c ****     } else {
 3049               		.loc 1 452 7 is_stmt 1 view .LVU799
 3050 005a 8551      		subi r24,lo8(-(-21))
 3051 005c 0C94 0000 		jmp rgblight_effect_knight
 3052               	.LVL200:
 3053               	.L120:
 455:quantum/rgblight.c ****     }
 3054               		.loc 1 455 7 view .LVU800
 3055 0060 0C94 0000 		jmp rgblight_effect_christmas
 3056               	.LVL201:
 3057               	.L114:
 3058               	/* epilogue start */
 458:quantum/rgblight.c **** 
 3059               		.loc 1 458 1 is_stmt 0 view .LVU801
 3060 0064 0895      		ret
 3061               		.cfi_endproc
 3062               	.LFE36:
 3064               		.section	.bss.current_offset.2252,"aw",@nobits
 3067               	current_offset.2252:
 3068 0000 0000      		.zero	2
 3069               		.section	.bss.last_timer.2253,"aw",@nobits
 3072               	last_timer.2253:
 3073 0000 0000      		.zero	2
 3074               		.section	.bss.pos.2229,"aw",@nobits
 3077               	pos.2229:
 3078 0000 00        		.zero	1
 3079               		.section	.data.increment.2236,"aw"
 3082               	increment.2236:
 3083 0000 FF        		.byte	-1
 3084               		.section	.bss.last_timer.2230,"aw",@nobits
 3087               	last_timer.2230:
 3088 0000 0000      		.zero	2
 3089               		.section	.bss.pos.2211,"aw",@nobits
 3092               	pos.2211:
 3093 0000 00        		.zero	1
 3094               		.section	.bss.last_timer.2212,"aw",@nobits
 3097               	last_timer.2212:
 3098 0000 0000      		.zero	2
 3099               		.section	.bss.current_hue.2198,"aw",@nobits
 3102               	current_hue.2198:
 3103 0000 0000      		.zero	2
 3104               		.section	.bss.last_timer.2199,"aw",@nobits
 3107               	last_timer.2199:
 3108 0000 0000      		.zero	2
 3109               		.section	.bss.current_hue.2190,"aw",@nobits
 3112               	current_hue.2190:
 3113 0000 0000      		.zero	2
 3114               		.section	.bss.last_timer.2191,"aw",@nobits
 3117               	last_timer.2191:
 3118 0000 0000      		.zero	2
 3119               		.section	.bss.pos.2179,"aw",@nobits
 3122               	pos.2179:
 3123 0000 00        		.zero	1
 3124               		.section	.bss.last_timer.2180,"aw",@nobits
 3127               	last_timer.2180:
 3128 0000 0000      		.zero	2
 3129               	.global	rgblight_timer_enabled
 3130               		.section	.bss.rgblight_timer_enabled,"aw",@nobits
 3133               	rgblight_timer_enabled:
 3134 0000 00        		.zero	1
 3135               	.global	rgblight_inited
 3136               		.section	.bss.rgblight_inited,"aw",@nobits
 3139               	rgblight_inited:
 3140 0000 00        		.zero	1
 3141               		.comm	led,6,1
 3142               		.comm	inmem_config,4,1
 3143               		.comm	rgblight_config,4,1
 3144               		.weak	RGBLED_KNIGHT_INTERVALS
 3145               		.section	.progmem.data.RGBLED_KNIGHT_INTERVALS,"a"
 3148               	RGBLED_KNIGHT_INTERVALS:
 3149 0000 6432 14   		.ascii	"d2\024"
 3150               		.weak	RGBLED_SNAKE_INTERVALS
 3151               		.section	.progmem.data.RGBLED_SNAKE_INTERVALS,"a"
 3154               	RGBLED_SNAKE_INTERVALS:
 3155 0000 6432 14   		.ascii	"d2\024"
 3156               		.weak	RGBLED_RAINBOW_SWIRL_INTERVALS
 3157               		.section	.progmem.data.RGBLED_RAINBOW_SWIRL_INTERVALS,"a"
 3160               	RGBLED_RAINBOW_SWIRL_INTERVALS:
 3161 0000 6432 14   		.ascii	"d2\024"
 3162               		.weak	RGBLED_RAINBOW_MOOD_INTERVALS
 3163               		.section	.progmem.data.RGBLED_RAINBOW_MOOD_INTERVALS,"a"
 3166               	RGBLED_RAINBOW_MOOD_INTERVALS:
 3167 0000 783C 1E   		.ascii	"x<\036"
 3168               		.weak	RGBLED_BREATHING_INTERVALS
 3169               		.section	.progmem.data.RGBLED_BREATHING_INTERVALS,"a"
 3172               	RGBLED_BREATHING_INTERVALS:
 3173 0000 1E14 0A05 		.ascii	"\036\024\n\005"
 3174               	.global	RGBLED_BREATHING_TABLE
 3175               		.section	.progmem.data.RGBLED_BREATHING_TABLE,"a"
 3178               	RGBLED_BREATHING_TABLE:
 3179 0000 00        		.string	""
 3180 0001 00        		.string	""
 3181 0002 00        		.string	""
 3182 0003 00        		.string	""
 3183 0004 0101 0102 		.string	"\001\001\001\002\002\003\004\005\005\006\007\t\n\013\f\016\017\021\022\024\025\027\031\03
 3183      0203 0405 
 3183      0506 0709 
 3183      0A0B 0C0E 
 3183      0F11 1214 
 3184 00fe 00        		.string	""
 3185 00ff 00        		.string	""
 3186               	.global	DIM_CURVE
 3187               		.section	.progmem.data.DIM_CURVE,"a"
 3190               	DIM_CURVE:
 3191 0000 00        		.string	""
 3192 0001 00        		.string	""
 3193 0002 00        		.string	""
 3194 0003 00        		.string	""
 3195 0004 00        		.string	""
 3196 0005 0101 0101 		.ascii	"\001\001\001\001\001\001\001\001\001\002\002\002\002\002\002"
 3196      0101 0101 
 3196      0102 0202 
 3196      0202 02
 3197 0014 0202 0203 		.ascii	"\002\002\002\003\003\003\003\003\003\003\003\004\004\004\004"
 3197      0303 0303 
 3197      0303 0304 
 3197      0404 04
 3198 0023 0404 0505 		.ascii	"\004\004\005\005\005\005\005\006\006\006\006\006\007\007\007"
 3198      0505 0506 
 3198      0606 0606 
 3198      0707 07
 3199 0032 0708 0808 		.ascii	"\007\b\b\b\b\t\t\t\n\n\n\n\013\013\013\f\f\f\r\r\r\016\016\017"
 3199      0809 0909 
 3199      0A0A 0A0A 
 3199      0B0B 0B0C 
 3199      0C0C 0D0D 
 3200 004a 0F0F 1010 		.ascii	"\017\017\020\020\021\021\021\022\022\023\023\024\024\025\025"
 3200      1111 1112 
 3200      1213 1314 
 3200      1415 15
 3201 0059 1616 1717 		.ascii	"\026\026\027\027\030\030\031\031\032\032\033\034\034\035\035"
 3201      1818 1919 
 3201      1A1A 1B1C 
 3201      1C1D 1D
 3202 0068 1E1F 1F20 		.ascii	"\036\037\037  !\"\"#$%%&''()*++,-.//01234566789:;<=>?@ABCDFG"
 3202      2021 2222 
 3202      2324 2525 
 3202      2627 2728 
 3202      292A 2B2B 
 3203 0099 4849 4A4B 		.ascii	"HIJKLMOPQRSUVWXZ[\\^_`bcdfgijlmnpqstvxy{|~\200\201\203\204\206"
 3203      4C4D 4F50 
 3203      5152 5355 
 3203      5657 585A 
 3203      5B5C 5E5F 
 3204 00c7 888A 8B8D 		.ascii	"\210\212\213\215\217\221\222\224\226\230\232\233\235\237\241"
 3204      8F91 9294 
 3204      9698 9A9B 
 3204      9D9F A1
 3205 00d6 A3A5 A7A9 		.ascii	"\243\245\247\251\253\255\257\261\263\265\267\271\273\275\277"
 3205      ABAD AFB1 
 3205      B3B5 B7B9 
 3205      BBBD BF
 3206 00e5 C1C4 C6C8 		.ascii	"\301\304\306\310\312\314\317\321\323\326\330\332\334\337\341"
 3206      CACC CFD1 
 3206      D3D6 D8DA 
 3206      DCDF E1
 3207 00f4 E4E6 E8EB 		.ascii	"\344\346\350\353\355\360\362\365\367\372\374\377"
 3207      EDF0 F2F5 
 3207      F7FA FCFF 
 3208               		.text
 3209               	.Letext0:
 3210               		.file 3 "/opt/homebrew/Cellar/avr-gcc@9/9.3.0_3/avr/include/stdint.h"
 3211               		.file 4 "quantum/light_ws2812.h"
 3212               		.file 5 "./tmk_core/common/timer.h"
 3213               		.file 6 "quantum/rgblight.h"
 3214               		.file 7 "./tmk_core/common/debug.h"
 3215               		.file 8 "./tmk_core/common/eeconfig.h"
 3216               		.file 9 "/opt/homebrew/Cellar/avr-gcc@9/9.3.0_3/avr/include/avr/eeprom.h"